Certificate:
    Data:
        Version: 3 (0x2)
        Serial Number:
            09:31:52:4e:d4:9e:b2:34:23:bc:01:b0:11:d1:60:e7
        Signature Algorithm: sha256WithRSAEncryption
        Issuer: CN=ib-vpn
        Validity
            Not Before: May 18 03:20:39 2026 GMT
            Not After : Aug 20 03:20:39 2028 GMT
        Subject: CN=client_NRT
        Subject Public Key Info:
            Public Key Algorithm: rsaEncryption
                RSA Public-Key: (2048 bit)
                Modulus:
                    00:c0:ac:06:85:92:b7:bc:04:42:b5:75:c8:27:0f:
                    65:14:d2:ef:d6:be:90:28:dc:8f:f7:90:83:0a:46:
                    79:3c:f3:97:b1:25:d6:e3:8a:2f:7a:73:84:0b:0a:
                    2a:60:de:c1:b8:68:f6:e3:ed:d9:e6:e4:44:0b:76:
                    d9:73:a5:07:17:41:0f:c9:ea:b3:8f:26:44:8b:57:
                    cf:9d:27:8e:59:a0:e5:72:b5:43:c8:de:33:f3:16:
                    57:cb:39:ab:99:97:69:54:93:eb:ab:77:b7:a3:fb:
                    aa:ef:10:74:af:81:47:86:a4:b6:e2:4f:30:1f:66:
                    35:e7:be:5b:84:ef:c1:c1:93:30:b3:81:b9:08:71:
                    9d:64:76:4d:ba:88:5e:c1:98:0a:2a:0c:f9:81:da:
                    0d:18:7d:45:d7:7b:81:bd:b4:5d:52:a5:02:e3:95:
                    e8:b6:d4:57:ba:c1:cc:1d:59:fe:94:5e:9f:e0:b9:
                    df:ee:cf:4d:81:a2:52:0d:f7:ac:0e:52:57:40:32:
                    a5:63:91:ce:ee:de:1c:0d:f7:5e:5f:dc:c8:cb:34:
                    1d:19:dd:13:41:2d:5a:6e:5d:67:45:07:dc:a3:8e:
                    41:e3:38:9e:b0:fa:12:e0:b5:1a:a5:bd:ef:ad:b7:
                    d6:bc:71:37:8c:0d:3a:42:be:8b:7f:84:c3:0d:ef:
                    bb:a7
                Exponent: 65537 (0x10001)
        X509v3 extensions:
            X509v3 Basic Constraints: 
                CA:FALSE
            X509v3 Subject Key Identifier: 
                D1:0E:62:D1:81:D6:E1:76:14:2F:DF:0A:02:5D:40:71:55:65:19:36
            X509v3 Authority Key Identifier: 
                keyid:DF:F0:39:F0:18:21:1F:9B:47:ED:B9:90:AA:38:3B:88:A9:E3:1E:7F
                DirName:/CN=ib-vpn
                serial:1E:C2:AE:BA:D4:84:7E:D4:92:A5:E6:AE:0F:86:A5:34:2F:72:08:BB

            X509v3 Extended Key Usage: 
                TLS Web Client Authentication
            X509v3 Key Usage: 
                Digital Signature
    Signature Algorithm: sha256WithRSAEncryption
         8f:d0:42:0a:a8:61:3c:70:e6:8d:8c:08:a8:8a:6d:b0:5f:2d:
         d8:97:a7:ed:c4:65:3a:ee:62:49:2f:af:d6:08:a0:d6:08:52:
         cf:52:0f:ff:71:25:e3:db:5a:f9:92:fb:a5:ca:77:70:d3:e8:
         0f:d6:b3:bb:23:e1:9f:79:e0:0a:d4:7b:91:40:8a:66:c6:a9:
         7c:8c:59:d2:da:a6:e4:88:84:f9:06:fc:a0:0a:f3:20:92:a4:
         35:ed:44:9d:72:e9:9d:c0:94:b3:e9:88:84:6c:c6:53:09:22:
         50:c6:1e:ce:1d:a3:c3:43:c5:ce:5a:e6:d2:37:1a:ee:50:27:
         71:b5:42:56:25:63:99:6e:c1:c1:86:98:7a:38:ac:98:46:d1:
         f3:53:6a:a2:b8:41:59:a6:97:67:0e:55:e4:fb:c5:66:4e:c8:
         96:52:10:24:b8:ec:d8:87:10:dc:fe:c7:56:8c:4f:b9:9f:db:
         81:1f:44:a8:bd:09:43:54:e2:07:71:19:42:93:ab:96:82:0c:
         5b:06:60:02:04:82:08:aa:26:35:84:47:a9:1b:eb:89:e2:f5:
         40:c6:01:cc:f2:dc:71:3f:7f:8b:4d:e0:e9:b5:73:f4:32:65:
         e4:a4:bb:b8:15:7e:f1:5c:ad:6d:0d:6e:e5:82:7a:bf:a2:a5:
         32:bc:ca:ea
-----BEGIN CERTIFICATE-----
MIIDTjCCAjagAwIBAgIQCTFSTtSesjQjvAGwEdFg5zANBgkqhkiG9w0BAQsFADAR
MQ8wDQYDVQQDDAZpYi12cG4wHhcNMjYwNTE4MDMyMDM5WhcNMjgwODIwMDMyMDM5
WjAVMRMwEQYDVQQDDApjbGllbnRfTlJUMIIBIjANBgkqhkiG9w0BAQEFAAOCAQ8A
MIIBCgKCAQEAwKwGhZK3vARCtXXIJw9lFNLv1r6QKNyP95CDCkZ5PPOXsSXW44ov
enOECwoqYN7BuGj24+3Z5uREC3bZc6UHF0EPyeqzjyZEi1fPnSeOWaDlcrVDyN4z
8xZXyzmrmZdpVJPrq3e3o/uq7xB0r4FHhqS24k8wH2Y1575bhO/BwZMws4G5CHGd
ZHZNuohewZgKKgz5gdoNGH1F13uBvbRdUqUC45XottRXusHMHVn+lF6f4Lnf7s9N
gaJSDfesDlJXQDKlY5HO7t4cDfdeX9zIyzQdGd0TQS1abl1nRQfco45B4ziesPoS
4LUapb3vrbfWvHE3jA06Qr6Lf4TDDe+7pwIDAQABo4GdMIGaMAkGA1UdEwQCMAAw
HQYDVR0OBBYEFNEOYtGB1uF2FC/fCgJdQHFVZRk2MEwGA1UdIwRFMEOAFN/wOfAY
IR+bR+25kKo4O4ip4x5/oRWkEzARMQ8wDQYDVQQDDAZpYi12cG6CFB7CrrrUhH7U
kqXmrg+GpTQvcgi7MBMGA1UdJQQMMAoGCCsGAQUFBwMCMAsGA1UdDwQEAwIHgDAN
BgkqhkiG9w0BAQsFAAOCAQEAj9BCCqhhPHDmjYwIqIptsF8t2Jen7cRlOu5iSS+v
1gig1ghSz1IP/3El49ta+ZL7pcp3cNPoD9azuyPhn3ngCtR7kUCKZsapfIxZ0tqm
5IiE+Qb8oArzIJKkNe1EnXLpncCUs+mIhGzGUwkiUMYezh2jw0PFzlrm0jca7lAn
cbVCViVjmW7BwYaYejismEbR81NqorhBWaaXZw5V5PvFZk7IllIQJLjs2IcQ3P7H
VoxPuZ/bgR9EqL0JQ1TiB3EZQpOrloIMWwZgAgSCCKomNYRHqRvrieL1QMYBzPLc
cT9/i03g6bVz9DJl5KS7uBV+8VytbQ1u5YJ6v6KlMrzK6g==
-----END CERTIFICATE-----
