Certificate:
    Data:
        Version: 3 (0x2)
        Serial Number:
            23:52:be:ff:14:20:37:28:2f:60:f1:3c:ef:1c:f9:5c
        Signature Algorithm: sha256WithRSAEncryption
        Issuer: CN=ib-vpn
        Validity
            Not Before: May 18 06:48:04 2026 GMT
            Not After : Aug 20 06:48:04 2028 GMT
        Subject: CN=client_NRT
        Subject Public Key Info:
            Public Key Algorithm: rsaEncryption
                RSA Public-Key: (2048 bit)
                Modulus:
                    00:bc:1e:f1:15:8e:4d:b5:2b:2c:52:08:c5:76:a9:
                    c4:fa:85:63:d7:09:96:14:e9:7e:68:44:56:12:ed:
                    b9:da:fd:a8:1b:bc:c2:80:ed:a9:91:53:1d:41:d5:
                    cd:9a:12:ca:9d:2d:00:f1:a1:d6:01:7f:bf:51:e2:
                    9d:e1:6c:1e:cd:0f:92:a8:5d:f0:ba:30:97:1d:85:
                    fd:be:f7:8b:2a:e3:c4:31:d5:81:57:cf:cb:e9:39:
                    06:39:d7:48:c0:14:65:c9:d4:a0:93:9f:25:68:b1:
                    2a:39:6c:81:5e:4c:72:53:c1:02:e4:e9:1d:d9:ea:
                    fb:79:db:8f:83:ac:f7:6d:90:02:58:25:5d:ba:0f:
                    24:fe:b4:f1:92:4b:df:ad:5f:46:70:b8:68:ad:a6:
                    c6:37:c3:1e:b8:7d:17:24:aa:dd:07:12:02:4b:bf:
                    85:5e:f2:a5:dc:16:c2:6d:d9:dd:20:48:7b:3a:c0:
                    1f:8e:b6:90:b3:6f:d8:f1:ed:4e:b6:4c:6f:92:a5:
                    63:d0:e6:1f:ac:5f:37:44:dd:6d:6e:71:86:35:e4:
                    32:3a:af:33:c9:4b:5c:78:1c:4d:7d:bc:bc:c5:9f:
                    52:a4:b5:8f:c5:49:92:38:dd:1c:5d:a4:c2:37:e4:
                    5c:b2:a6:60:0a:d0:7f:bb:45:55:8c:5c:84:e4:ce:
                    9d:5d
                Exponent: 65537 (0x10001)
        X509v3 extensions:
            X509v3 Basic Constraints: 
                CA:FALSE
            X509v3 Subject Key Identifier: 
                FB:9D:AF:F0:7E:F1:3F:30:23:36:82:0F:4A:C8:F2:11:67:FD:AB:CB
            X509v3 Authority Key Identifier: 
                keyid:DF:F0:39:F0:18:21:1F:9B:47:ED:B9:90:AA:38:3B:88:A9:E3:1E:7F
                DirName:/CN=ib-vpn
                serial:1E:C2:AE:BA:D4:84:7E:D4:92:A5:E6:AE:0F:86:A5:34:2F:72:08:BB

            X509v3 Extended Key Usage: 
                TLS Web Client Authentication
            X509v3 Key Usage: 
                Digital Signature
    Signature Algorithm: sha256WithRSAEncryption
         b8:1b:af:78:9a:64:91:d3:52:a8:e8:38:57:66:1f:48:c8:49:
         ac:e2:30:72:95:c5:dd:4d:26:68:75:77:6a:ba:8f:24:29:32:
         a9:d1:22:22:39:ae:41:09:05:1e:09:51:78:c1:1b:49:5e:ab:
         ee:7f:c0:44:f1:35:5e:d5:c6:4f:23:c0:dc:ef:a1:9b:42:ea:
         6b:68:21:a1:93:73:2f:c8:e3:b2:2a:89:9a:e0:d7:86:c3:7c:
         6b:21:80:f7:bf:10:07:e7:e0:ef:d0:13:b9:c1:cf:5d:12:95:
         ba:97:e5:26:76:36:ed:15:85:3b:75:6b:a6:2c:f3:25:de:38:
         a7:45:a4:dc:e8:87:3d:a3:74:c7:77:c7:0f:d9:21:b1:88:6a:
         0a:1c:72:99:f8:e1:7e:80:84:21:40:dd:63:e2:0a:00:be:16:
         97:4f:78:90:8a:7a:9b:b2:60:88:83:8a:b9:ea:60:df:00:ee:
         d0:bf:38:67:4f:9a:59:74:9b:20:1e:44:d1:6f:af:20:c0:55:
         83:3c:7a:0b:aa:23:5f:ba:ad:d4:f9:3d:da:21:e0:b2:8e:0a:
         b9:cf:88:cf:ec:7e:0e:49:a8:e2:05:5b:8c:54:36:9d:d0:b0:
         16:a4:fe:6e:aa:2d:ac:e1:38:06:66:29:f9:ea:ad:4b:ff:5f:
         98:9e:db:ea
-----BEGIN CERTIFICATE-----
MIIDTjCCAjagAwIBAgIQI1K+/xQgNygvYPE87xz5XDANBgkqhkiG9w0BAQsFADAR
MQ8wDQYDVQQDDAZpYi12cG4wHhcNMjYwNTE4MDY0ODA0WhcNMjgwODIwMDY0ODA0
WjAVMRMwEQYDVQQDDApjbGllbnRfTlJUMIIBIjANBgkqhkiG9w0BAQEFAAOCAQ8A
MIIBCgKCAQEAvB7xFY5NtSssUgjFdqnE+oVj1wmWFOl+aERWEu252v2oG7zCgO2p
kVMdQdXNmhLKnS0A8aHWAX+/UeKd4WwezQ+SqF3wujCXHYX9vveLKuPEMdWBV8/L
6TkGOddIwBRlydSgk58laLEqOWyBXkxyU8EC5Okd2er7eduPg6z3bZACWCVdug8k
/rTxkkvfrV9GcLhorabGN8MeuH0XJKrdBxICS7+FXvKl3BbCbdndIEh7OsAfjraQ
s2/Y8e1OtkxvkqVj0OYfrF83RN1tbnGGNeQyOq8zyUtceBxNfby8xZ9SpLWPxUmS
ON0cXaTCN+RcsqZgCtB/u0VVjFyE5M6dXQIDAQABo4GdMIGaMAkGA1UdEwQCMAAw
HQYDVR0OBBYEFPudr/B+8T8wIzaCD0rI8hFn/avLMEwGA1UdIwRFMEOAFN/wOfAY
IR+bR+25kKo4O4ip4x5/oRWkEzARMQ8wDQYDVQQDDAZpYi12cG6CFB7CrrrUhH7U
kqXmrg+GpTQvcgi7MBMGA1UdJQQMMAoGCCsGAQUFBwMCMAsGA1UdDwQEAwIHgDAN
BgkqhkiG9w0BAQsFAAOCAQEAuBuveJpkkdNSqOg4V2YfSMhJrOIwcpXF3U0maHV3
arqPJCkyqdEiIjmuQQkFHglReMEbSV6r7n/ARPE1XtXGTyPA3O+hm0Lqa2ghoZNz
L8jjsiqJmuDXhsN8ayGA978QB+fg79ATucHPXRKVupflJnY27RWFO3VrpizzJd44
p0Wk3OiHPaN0x3fHD9khsYhqChxymfjhfoCEIUDdY+IKAL4Wl094kIp6m7JgiIOK
uepg3wDu0L84Z0+aWXSbIB5E0W+vIMBVgzx6C6ojX7qt1Pk92iHgso4Kuc+Iz+x+
Dkmo4gVbjFQ2ndCwFqT+bqotrOE4BmYp+eqtS/9fmJ7b6g==
-----END CERTIFICATE-----
