Certificate:
    Data:
        Version: 3 (0x2)
        Serial Number:
            24:a2:99:27:06:a2:05:69:51:d7:cc:97:d7:da:b6:0c
        Signature Algorithm: sha256WithRSAEncryption
        Issuer: CN=ib-vpn
        Validity
            Not Before: Apr 16 06:34:10 2026 GMT
            Not After : Jul 19 06:34:10 2028 GMT
        Subject: CN=client_www
        Subject Public Key Info:
            Public Key Algorithm: rsaEncryption
                RSA Public-Key: (2048 bit)
                Modulus:
                    00:d0:fd:d1:98:88:74:53:a4:b6:a2:ab:53:79:a1:
                    fd:00:3a:c0:af:f9:5d:11:0d:61:2d:23:0c:ad:d3:
                    4a:41:b0:02:cb:4a:b2:e4:74:c2:8c:7a:ee:9e:78:
                    89:13:61:6f:63:d6:6e:5c:89:2f:4b:20:81:88:75:
                    a1:cc:30:e8:7f:3d:1a:0e:cb:0a:52:fe:a2:65:bd:
                    5e:f3:35:b9:a0:d0:a0:5e:4e:8a:75:ea:cd:78:22:
                    09:27:47:65:fe:95:b6:aa:71:bb:18:fe:08:28:f7:
                    87:1a:81:ee:71:6c:63:c7:ad:40:ff:dc:89:d6:b4:
                    92:f5:4a:0d:35:11:d1:81:c9:42:76:cd:17:2e:d3:
                    64:72:14:17:df:6a:a5:d7:80:80:b5:bf:f4:9e:0d:
                    2c:a7:f6:77:82:42:15:f7:47:bc:78:81:db:aa:a3:
                    26:25:61:d0:bf:0f:c9:d5:11:f6:30:9c:d1:4f:ee:
                    c2:ad:f3:8e:1c:48:8d:05:f1:a8:d0:b4:76:ac:1b:
                    e7:ae:e7:3b:f5:57:68:e4:e9:bc:8a:1a:b4:82:9e:
                    61:65:59:5d:e7:15:4e:27:be:c3:63:53:b6:f0:14:
                    3a:e2:2d:0b:fe:d8:53:a1:ba:16:0f:48:07:1c:dc:
                    ee:c7:3a:42:0d:d9:fb:34:80:58:9b:1e:0e:6f:c2:
                    83:67
                Exponent: 65537 (0x10001)
        X509v3 extensions:
            X509v3 Basic Constraints: 
                CA:FALSE
            X509v3 Subject Key Identifier: 
                24:ED:17:01:D4:84:13:D1:B5:CA:EA:76:EA:67:25:47:DD:B3:29:A5
            X509v3 Authority Key Identifier: 
                keyid:DF:F0:39:F0:18:21:1F:9B:47:ED:B9:90:AA:38:3B:88:A9:E3:1E:7F
                DirName:/CN=ib-vpn
                serial:1E:C2:AE:BA:D4:84:7E:D4:92:A5:E6:AE:0F:86:A5:34:2F:72:08:BB

            X509v3 Extended Key Usage: 
                TLS Web Client Authentication
            X509v3 Key Usage: 
                Digital Signature
    Signature Algorithm: sha256WithRSAEncryption
         06:58:f3:5c:f8:d5:58:66:68:bf:c7:cc:1c:83:51:cc:3e:5b:
         cc:26:fd:10:c4:b3:de:7a:d5:82:71:7f:94:2a:91:1a:2d:1f:
         ca:ac:c7:ba:94:16:3a:1d:b0:a9:e3:36:b7:68:50:6c:da:0a:
         26:4f:f5:d7:3c:7b:27:89:22:85:c6:70:bd:e8:48:b9:dc:84:
         4c:ce:86:8e:65:6a:92:5e:ee:52:1f:d9:6c:26:61:fa:d2:2d:
         cb:6a:19:17:31:61:56:fa:ac:54:52:aa:be:e6:1b:ea:45:0c:
         63:92:51:fd:d0:38:de:83:b0:e9:5b:a9:f5:02:9f:15:ca:5c:
         70:fa:66:b9:ef:8b:89:ae:58:42:33:1e:83:64:e3:90:60:e6:
         cb:aa:43:f4:27:96:05:2e:07:c5:d4:6a:35:81:fc:ae:50:07:
         14:1f:f6:20:a4:c4:55:93:7b:e0:b1:43:6a:dc:3b:95:4f:fc:
         b6:fc:bd:c4:7d:10:87:4d:6a:16:11:09:9d:b3:f4:ea:68:43:
         c2:07:ca:8e:98:ca:60:ef:1d:e7:f0:9a:93:70:b9:bf:8e:e6:
         f3:a6:ff:d6:00:57:e5:52:e8:4e:d6:36:a8:f0:1e:f7:38:1b:
         3f:de:5d:ae:04:1f:c0:f1:17:3a:03:e3:e0:7e:86:e5:9e:aa:
         6f:b0:71:c7
-----BEGIN CERTIFICATE-----
MIIDTjCCAjagAwIBAgIQJKKZJwaiBWlR18yX19q2DDANBgkqhkiG9w0BAQsFADAR
MQ8wDQYDVQQDDAZpYi12cG4wHhcNMjYwNDE2MDYzNDEwWhcNMjgwNzE5MDYzNDEw
WjAVMRMwEQYDVQQDDApjbGllbnRfd3d3MIIBIjANBgkqhkiG9w0BAQEFAAOCAQ8A
MIIBCgKCAQEA0P3RmIh0U6S2oqtTeaH9ADrAr/ldEQ1hLSMMrdNKQbACy0qy5HTC
jHrunniJE2FvY9ZuXIkvSyCBiHWhzDDofz0aDssKUv6iZb1e8zW5oNCgXk6KderN
eCIJJ0dl/pW2qnG7GP4IKPeHGoHucWxjx61A/9yJ1rSS9UoNNRHRgclCds0XLtNk
chQX32ql14CAtb/0ng0sp/Z3gkIV90e8eIHbqqMmJWHQvw/J1RH2MJzRT+7CrfOO
HEiNBfGo0LR2rBvnruc79Vdo5Om8ihq0gp5hZVld5xVOJ77DY1O28BQ64i0L/thT
oboWD0gHHNzuxzpCDdn7NIBYmx4Ob8KDZwIDAQABo4GdMIGaMAkGA1UdEwQCMAAw
HQYDVR0OBBYEFCTtFwHUhBPRtcrqdupnJUfdsymlMEwGA1UdIwRFMEOAFN/wOfAY
IR+bR+25kKo4O4ip4x5/oRWkEzARMQ8wDQYDVQQDDAZpYi12cG6CFB7CrrrUhH7U
kqXmrg+GpTQvcgi7MBMGA1UdJQQMMAoGCCsGAQUFBwMCMAsGA1UdDwQEAwIHgDAN
BgkqhkiG9w0BAQsFAAOCAQEABljzXPjVWGZov8fMHINRzD5bzCb9EMSz3nrVgnF/
lCqRGi0fyqzHupQWOh2wqeM2t2hQbNoKJk/11zx7J4kihcZwvehIudyETM6GjmVq
kl7uUh/ZbCZh+tIty2oZFzFhVvqsVFKqvuYb6kUMY5JR/dA43oOw6Vup9QKfFcpc
cPpmue+Lia5YQjMeg2TjkGDmy6pD9CeWBS4HxdRqNYH8rlAHFB/2IKTEVZN74LFD
atw7lU/8tvy9xH0Qh01qFhEJnbP06mhDwgfKjpjKYO8d5/Cak3C5v47m86b/1gBX
5VLoTtY2qPAe9zgbP95drgQfwPEXOgPj4H6G5Z6qb7Bxxw==
-----END CERTIFICATE-----
