Certificate:
    Data:
        Version: 3 (0x2)
        Serial Number:
            29:29:b6:fc:1e:a9:45:1f:7c:e7:09:73:5b:f0:e5:8d
        Signature Algorithm: sha256WithRSAEncryption
        Issuer: CN=ib-vpn
        Validity
            Not Before: Apr 14 10:56:28 2026 GMT
            Not After : Jul 17 10:56:28 2028 GMT
        Subject: CN=client_LOX
        Subject Public Key Info:
            Public Key Algorithm: rsaEncryption
                RSA Public-Key: (2048 bit)
                Modulus:
                    00:b2:7b:e0:c5:a7:af:e6:1c:b5:5a:ff:13:58:2a:
                    23:2e:23:d0:5e:77:83:6d:d4:f1:a7:0d:c6:3c:32:
                    f9:b3:ba:70:bf:b4:27:ab:cd:3a:dc:8c:00:40:45:
                    4f:80:bd:dd:cc:65:c6:8d:4a:7e:bf:34:05:bd:86:
                    16:e3:f4:d5:b6:ab:c3:75:26:e6:37:00:5b:44:e5:
                    d2:be:05:97:96:ac:30:f0:9f:b2:a9:47:34:6d:a7:
                    f6:34:2a:f4:cd:61:9d:97:9d:7d:c6:85:59:ab:3c:
                    24:79:bd:0b:5a:d1:fd:70:99:ea:2f:d1:9a:08:4e:
                    67:89:a3:74:d7:87:16:7f:6d:64:93:4f:57:c3:b2:
                    81:3d:39:b6:cd:b1:98:9e:e9:7b:d1:8d:8d:f0:85:
                    4c:68:36:4b:95:e0:0e:2f:33:69:e0:4c:42:8a:76:
                    89:a9:44:8b:f6:3a:92:64:49:74:4d:97:fe:04:7b:
                    db:8a:27:40:1c:87:c4:f1:b9:ae:fb:a2:3d:aa:6f:
                    68:41:98:fa:f0:36:60:37:dd:16:43:38:d2:0b:3a:
                    a4:52:eb:46:d8:0d:f8:24:5f:f6:7b:11:cf:db:6a:
                    f2:a1:ff:60:9b:15:18:b8:1c:3f:3a:5d:9d:cd:e2:
                    49:16:cf:88:ae:ae:cd:1a:fd:d4:de:53:15:11:09:
                    d1:c9
                Exponent: 65537 (0x10001)
        X509v3 extensions:
            X509v3 Basic Constraints: 
                CA:FALSE
            X509v3 Subject Key Identifier: 
                F3:4F:72:89:E4:81:A4:9F:E3:C6:FD:6C:5F:86:27:32:A3:E7:48:CC
            X509v3 Authority Key Identifier: 
                keyid:DF:F0:39:F0:18:21:1F:9B:47:ED:B9:90:AA:38:3B:88:A9:E3:1E:7F
                DirName:/CN=ib-vpn
                serial:1E:C2:AE:BA:D4:84:7E:D4:92:A5:E6:AE:0F:86:A5:34:2F:72:08:BB

            X509v3 Extended Key Usage: 
                TLS Web Client Authentication
            X509v3 Key Usage: 
                Digital Signature
    Signature Algorithm: sha256WithRSAEncryption
         35:66:ad:cb:03:a4:80:d9:ca:a2:a3:f3:35:04:0a:01:98:48:
         94:03:7f:fc:75:75:7d:98:e7:dd:18:a1:37:5a:ff:92:8d:50:
         31:41:97:4c:b5:5a:7c:06:09:9a:8e:d4:7c:83:b1:47:84:e8:
         0e:d9:ed:e4:78:05:fb:25:f2:0f:05:d7:61:1a:78:71:da:15:
         fd:01:a9:65:8f:ef:84:63:e7:61:fa:56:c0:bd:70:cc:d8:6f:
         2c:d3:5d:9b:11:2d:8d:c9:f8:08:b7:1a:da:61:e7:34:d9:88:
         e4:80:90:e5:7c:b0:01:da:8d:d0:ec:a1:dd:43:50:74:09:68:
         c9:c5:bc:cc:81:c5:47:e5:c4:8f:eb:bf:1b:2c:d6:f7:14:ea:
         82:2e:a0:87:0c:c6:a3:e7:1f:a3:dd:67:2f:2a:7a:19:9a:be:
         f0:16:52:c9:65:6a:c2:86:ed:10:41:0a:58:c2:aa:24:19:5c:
         f3:22:3b:11:0b:cf:d9:c1:4d:da:9e:45:a2:0d:46:30:28:6c:
         a5:35:f6:b2:f9:4f:a0:ab:6a:61:1d:1c:b5:38:f8:26:86:88:
         84:2e:61:32:b1:7f:f1:13:35:a5:aa:d0:68:50:bc:b5:12:fc:
         77:c2:6d:03:b6:1e:21:e1:98:ef:b3:94:92:03:6a:dd:3c:59:
         d5:ee:26:04
-----BEGIN CERTIFICATE-----
MIIDTjCCAjagAwIBAgIQKSm2/B6pRR985wlzW/DljTANBgkqhkiG9w0BAQsFADAR
MQ8wDQYDVQQDDAZpYi12cG4wHhcNMjYwNDE0MTA1NjI4WhcNMjgwNzE3MTA1NjI4
WjAVMRMwEQYDVQQDDApjbGllbnRfTE9YMIIBIjANBgkqhkiG9w0BAQEFAAOCAQ8A
MIIBCgKCAQEAsnvgxaev5hy1Wv8TWCojLiPQXneDbdTxpw3GPDL5s7pwv7Qnq806
3IwAQEVPgL3dzGXGjUp+vzQFvYYW4/TVtqvDdSbmNwBbROXSvgWXlqww8J+yqUc0
baf2NCr0zWGdl519xoVZqzwkeb0LWtH9cJnqL9GaCE5niaN014cWf21kk09Xw7KB
PTm2zbGYnul70Y2N8IVMaDZLleAOLzNp4ExCinaJqUSL9jqSZEl0TZf+BHvbiidA
HIfE8bmu+6I9qm9oQZj68DZgN90WQzjSCzqkUutG2A34JF/2exHP22ryof9gmxUY
uBw/Ol2dzeJJFs+Irq7NGv3U3lMVEQnRyQIDAQABo4GdMIGaMAkGA1UdEwQCMAAw
HQYDVR0OBBYEFPNPconkgaSf48b9bF+GJzKj50jMMEwGA1UdIwRFMEOAFN/wOfAY
IR+bR+25kKo4O4ip4x5/oRWkEzARMQ8wDQYDVQQDDAZpYi12cG6CFB7CrrrUhH7U
kqXmrg+GpTQvcgi7MBMGA1UdJQQMMAoGCCsGAQUFBwMCMAsGA1UdDwQEAwIHgDAN
BgkqhkiG9w0BAQsFAAOCAQEANWatywOkgNnKoqPzNQQKAZhIlAN//HV1fZjn3Rih
N1r/ko1QMUGXTLVafAYJmo7UfIOxR4ToDtnt5HgF+yXyDwXXYRp4cdoV/QGpZY/v
hGPnYfpWwL1wzNhvLNNdmxEtjcn4CLca2mHnNNmI5ICQ5XywAdqN0Oyh3UNQdAlo
ycW8zIHFR+XEj+u/GyzW9xTqgi6ghwzGo+cfo91nLyp6GZq+8BZSyWVqwobtEEEK
WMKqJBlc8yI7EQvP2cFN2p5Fog1GMChspTX2svlPoKtqYR0ctTj4JoaIhC5hMrF/
8RM1parQaFC8tRL8d8JtA7YeIeGY77OUkgNq3TxZ1e4mBA==
-----END CERTIFICATE-----
