Certificate:
    Data:
        Version: 3 (0x2)
        Serial Number:
            49:fa:59:41:ba:44:1f:6b:5b:ca:9f:ea:74:6e:62:e8
        Signature Algorithm: sha256WithRSAEncryption
        Issuer: CN=ib-vpn
        Validity
            Not Before: Apr 16 06:40:04 2026 GMT
            Not After : Jul 19 06:40:04 2028 GMT
        Subject: CN=client_eee
        Subject Public Key Info:
            Public Key Algorithm: rsaEncryption
                RSA Public-Key: (2048 bit)
                Modulus:
                    00:b6:63:c1:52:2a:91:a9:74:6d:2b:85:61:b0:66:
                    7d:0f:78:e0:d0:82:c9:90:33:ab:7e:d7:c4:7a:3e:
                    0c:d6:59:95:46:2f:3e:52:54:52:e4:e3:d1:53:5c:
                    e5:0b:2e:66:41:d6:74:cf:d1:d9:2c:12:06:10:48:
                    a6:fe:8c:f8:cd:22:0c:19:1e:45:4b:e1:5e:ff:57:
                    01:d9:1b:8b:c8:5f:af:66:3d:41:ac:f9:fe:da:53:
                    f6:9f:af:22:f4:b9:6f:40:fd:49:52:14:85:97:8b:
                    ed:2a:ec:58:49:12:03:30:20:6e:99:f2:15:90:b9:
                    f1:d8:9a:66:ee:d6:05:d5:7d:0d:92:5c:ff:41:78:
                    a3:b4:59:eb:43:1a:0c:57:57:5e:6f:fc:a7:6b:ab:
                    58:a8:d9:6a:18:41:07:44:90:7b:ca:ef:ba:60:4e:
                    af:d8:e7:bb:f4:f6:12:7e:8d:6b:d1:ba:cc:d8:65:
                    51:67:1f:52:46:f3:45:e1:d6:da:87:1d:06:7a:18:
                    25:db:e9:14:28:a8:1f:68:7e:04:ad:e2:49:7f:bd:
                    d8:b3:0c:33:ce:ec:20:38:4a:00:81:36:16:c9:ae:
                    cb:9e:17:09:d7:50:42:df:be:96:b4:6d:9c:20:e5:
                    f1:94:96:16:aa:e2:55:5f:fa:36:72:90:18:4d:ca:
                    c7:03
                Exponent: 65537 (0x10001)
        X509v3 extensions:
            X509v3 Basic Constraints: 
                CA:FALSE
            X509v3 Subject Key Identifier: 
                0F:74:3D:31:3E:3B:98:7F:59:FD:FC:F2:AF:56:C2:5F:76:19:8C:11
            X509v3 Authority Key Identifier: 
                keyid:DF:F0:39:F0:18:21:1F:9B:47:ED:B9:90:AA:38:3B:88:A9:E3:1E:7F
                DirName:/CN=ib-vpn
                serial:1E:C2:AE:BA:D4:84:7E:D4:92:A5:E6:AE:0F:86:A5:34:2F:72:08:BB

            X509v3 Extended Key Usage: 
                TLS Web Client Authentication
            X509v3 Key Usage: 
                Digital Signature
    Signature Algorithm: sha256WithRSAEncryption
         7d:4c:cf:2f:5f:fc:fa:56:02:a5:c1:6f:d3:df:c7:4d:ac:be:
         16:e7:f6:4a:96:44:69:11:c0:7a:25:e5:f6:fa:f1:84:c8:a2:
         fb:4d:0e:eb:10:e2:60:be:76:69:c2:1f:0b:25:bc:f4:ee:11:
         f7:77:8b:a9:e1:85:d0:76:8f:68:a6:da:b3:cb:e9:b7:17:37:
         4b:80:4d:78:96:ad:68:84:4f:ca:b7:fb:d0:47:cb:44:4c:47:
         13:8c:47:ac:9d:b1:8a:fc:25:db:3a:c1:53:e4:1b:85:59:20:
         69:40:b4:4d:5f:4c:5e:e0:e1:68:d4:f6:42:e9:31:07:dd:ec:
         c8:01:d3:00:81:cf:52:18:8d:f9:bc:96:18:a2:c8:be:a5:ca:
         87:db:b6:ed:af:84:69:a4:ca:91:4d:16:ec:bd:0f:46:60:4d:
         87:08:be:63:16:6d:ae:13:8b:f7:5d:2e:bd:43:8e:ab:a3:2d:
         e7:8d:00:5b:51:3e:ab:a8:9f:6f:94:06:0a:c9:52:39:de:e7:
         62:be:88:35:8d:6d:93:f6:51:f4:bd:68:57:77:d0:13:e0:36:
         d2:e2:87:f8:cc:b6:d7:cf:3a:cf:7d:c2:4f:20:0a:44:63:5d:
         6f:d7:ad:bd:bc:03:82:fb:47:af:5d:68:9f:a5:a2:e7:8b:f6:
         86:f0:98:8d
-----BEGIN CERTIFICATE-----
MIIDTjCCAjagAwIBAgIQSfpZQbpEH2tbyp/qdG5i6DANBgkqhkiG9w0BAQsFADAR
MQ8wDQYDVQQDDAZpYi12cG4wHhcNMjYwNDE2MDY0MDA0WhcNMjgwNzE5MDY0MDA0
WjAVMRMwEQYDVQQDDApjbGllbnRfZWVlMIIBIjANBgkqhkiG9w0BAQEFAAOCAQ8A
MIIBCgKCAQEAtmPBUiqRqXRtK4VhsGZ9D3jg0ILJkDOrftfEej4M1lmVRi8+UlRS
5OPRU1zlCy5mQdZ0z9HZLBIGEEim/oz4zSIMGR5FS+Fe/1cB2RuLyF+vZj1BrPn+
2lP2n68i9LlvQP1JUhSFl4vtKuxYSRIDMCBumfIVkLnx2Jpm7tYF1X0Nklz/QXij
tFnrQxoMV1deb/yna6tYqNlqGEEHRJB7yu+6YE6v2Oe79PYSfo1r0brM2GVRZx9S
RvNF4dbahx0Gehgl2+kUKKgfaH4EreJJf73YswwzzuwgOEoAgTYWya7LnhcJ11BC
376WtG2cIOXxlJYWquJVX/o2cpAYTcrHAwIDAQABo4GdMIGaMAkGA1UdEwQCMAAw
HQYDVR0OBBYEFA90PTE+O5h/Wf388q9Wwl92GYwRMEwGA1UdIwRFMEOAFN/wOfAY
IR+bR+25kKo4O4ip4x5/oRWkEzARMQ8wDQYDVQQDDAZpYi12cG6CFB7CrrrUhH7U
kqXmrg+GpTQvcgi7MBMGA1UdJQQMMAoGCCsGAQUFBwMCMAsGA1UdDwQEAwIHgDAN
BgkqhkiG9w0BAQsFAAOCAQEAfUzPL1/8+lYCpcFv09/HTay+Fuf2SpZEaRHAeiXl
9vrxhMii+00O6xDiYL52acIfCyW89O4R93eLqeGF0HaPaKbas8vptxc3S4BNeJat
aIRPyrf70EfLRExHE4xHrJ2xivwl2zrBU+QbhVkgaUC0TV9MXuDhaNT2QukxB93s
yAHTAIHPUhiN+byWGKLIvqXKh9u27a+EaaTKkU0W7L0PRmBNhwi+YxZtrhOL910u
vUOOq6Mt540AW1E+q6ifb5QGCslSOd7nYr6INY1tk/ZR9L1oV3fQE+A20uKH+My2
1886z33CTyAKRGNdb9etvbwDgvtHr11on6Wi54v2hvCYjQ==
-----END CERTIFICATE-----
