Certificate:
    Data:
        Version: 3 (0x2)
        Serial Number:
            4a:56:41:25:37:57:c4:9e:f0:fd:16:21:59:b6:e2:56
        Signature Algorithm: sha256WithRSAEncryption
        Issuer: CN=ib-vpn
        Validity
            Not Before: Apr 16 06:31:52 2026 GMT
            Not After : Jul 19 06:31:52 2028 GMT
        Subject: CN=client_LOX
        Subject Public Key Info:
            Public Key Algorithm: rsaEncryption
                RSA Public-Key: (2048 bit)
                Modulus:
                    00:eb:4a:d8:f2:11:e5:78:69:1e:a7:09:13:bd:09:
                    a4:6b:4d:a4:67:bf:e2:8a:42:a4:ca:1f:57:17:d0:
                    f0:40:33:4a:27:22:2e:1a:12:10:32:6d:8e:1b:c5:
                    a8:1f:73:ec:ae:26:96:c8:c0:a8:8c:3c:88:59:d2:
                    e8:f9:f0:62:80:89:93:2e:5a:a7:bd:8d:4a:28:27:
                    5d:27:71:ce:1d:f3:d8:ba:d9:f5:3b:b3:ee:23:d8:
                    06:ac:f9:0d:26:99:57:33:36:17:33:a7:fd:e3:07:
                    0d:98:53:98:8b:15:63:70:24:f5:7a:9c:de:90:a0:
                    db:fa:bf:a2:0f:8f:35:bc:d4:66:22:ca:60:05:7b:
                    44:fe:ac:22:a1:d9:48:37:e1:40:fc:90:6f:bf:f8:
                    a2:99:16:b9:5a:53:d2:a1:f8:ee:97:55:0f:7d:09:
                    30:fb:e2:39:97:bf:e2:6c:b0:71:0f:6e:9c:fb:65:
                    d7:ec:3a:48:bd:60:91:cf:cb:6b:9f:58:56:b6:fe:
                    1a:6b:64:70:5f:4b:2a:b6:31:50:4e:f3:84:b3:fa:
                    23:89:fe:0b:1a:c8:73:12:98:de:ec:29:5e:aa:5f:
                    14:25:d1:10:59:df:a9:d8:b3:f6:24:78:73:f6:2e:
                    a1:da:16:3b:83:87:d2:7a:b8:3f:83:a0:fb:c8:f6:
                    bc:e1
                Exponent: 65537 (0x10001)
        X509v3 extensions:
            X509v3 Basic Constraints: 
                CA:FALSE
            X509v3 Subject Key Identifier: 
                F3:3C:E2:1C:57:CB:06:2E:B8:9A:01:88:AE:3F:B5:2D:56:3B:C4:0A
            X509v3 Authority Key Identifier: 
                keyid:DF:F0:39:F0:18:21:1F:9B:47:ED:B9:90:AA:38:3B:88:A9:E3:1E:7F
                DirName:/CN=ib-vpn
                serial:1E:C2:AE:BA:D4:84:7E:D4:92:A5:E6:AE:0F:86:A5:34:2F:72:08:BB

            X509v3 Extended Key Usage: 
                TLS Web Client Authentication
            X509v3 Key Usage: 
                Digital Signature
    Signature Algorithm: sha256WithRSAEncryption
         2f:02:2f:30:ff:30:be:15:1c:31:8d:d0:31:41:91:25:a1:01:
         13:60:3a:76:80:d8:97:8a:cf:ef:b6:2c:b3:71:9e:ed:b7:90:
         c3:16:73:f7:a9:74:69:62:57:13:c7:e9:53:70:a5:13:b4:c9:
         8c:e5:47:bc:9c:f8:9c:ef:c2:9b:9a:48:1e:65:c6:c5:71:12:
         5e:cb:83:74:a4:03:41:58:32:a6:71:47:2d:d7:47:47:ef:5c:
         41:9e:8f:9a:2b:7f:d5:ee:e8:b6:78:da:31:65:56:0a:4c:6b:
         cd:5b:28:27:a2:5f:56:d7:89:bf:4e:1a:c1:88:88:c5:11:ea:
         ab:70:c6:1a:b1:83:32:3a:2b:57:7a:7d:f7:1e:a1:30:ed:b7:
         27:0e:f3:f1:ac:e2:9c:40:bb:d9:eb:7e:2d:86:cd:7f:25:e9:
         2d:d4:aa:1f:ba:63:2d:79:c4:93:ff:28:6d:1b:c9:b8:ea:4f:
         ab:fb:68:7c:1e:b9:ba:e3:e3:76:fd:01:0d:4e:1a:d9:b3:0c:
         e8:42:0d:da:ae:06:cb:96:c7:02:d8:31:09:02:b9:b5:4a:81:
         58:f8:f8:d2:09:1d:f0:01:b2:0a:b2:0b:e7:1b:ac:e8:7e:23:
         15:ec:45:4d:bd:c9:94:22:e9:bf:16:96:f6:2e:f9:82:e8:f6:
         b8:65:30:ed
-----BEGIN CERTIFICATE-----
MIIDTjCCAjagAwIBAgIQSlZBJTdXxJ7w/RYhWbbiVjANBgkqhkiG9w0BAQsFADAR
MQ8wDQYDVQQDDAZpYi12cG4wHhcNMjYwNDE2MDYzMTUyWhcNMjgwNzE5MDYzMTUy
WjAVMRMwEQYDVQQDDApjbGllbnRfTE9YMIIBIjANBgkqhkiG9w0BAQEFAAOCAQ8A
MIIBCgKCAQEA60rY8hHleGkepwkTvQmka02kZ7/iikKkyh9XF9DwQDNKJyIuGhIQ
Mm2OG8WoH3PsriaWyMCojDyIWdLo+fBigImTLlqnvY1KKCddJ3HOHfPYutn1O7Pu
I9gGrPkNJplXMzYXM6f94wcNmFOYixVjcCT1epzekKDb+r+iD481vNRmIspgBXtE
/qwiodlIN+FA/JBvv/iimRa5WlPSofjul1UPfQkw++I5l7/ibLBxD26c+2XX7DpI
vWCRz8trn1hWtv4aa2RwX0sqtjFQTvOEs/ojif4LGshzEpje7Cleql8UJdEQWd+p
2LP2JHhz9i6h2hY7g4fSerg/g6D7yPa84QIDAQABo4GdMIGaMAkGA1UdEwQCMAAw
HQYDVR0OBBYEFPM84hxXywYuuJoBiK4/tS1WO8QKMEwGA1UdIwRFMEOAFN/wOfAY
IR+bR+25kKo4O4ip4x5/oRWkEzARMQ8wDQYDVQQDDAZpYi12cG6CFB7CrrrUhH7U
kqXmrg+GpTQvcgi7MBMGA1UdJQQMMAoGCCsGAQUFBwMCMAsGA1UdDwQEAwIHgDAN
BgkqhkiG9w0BAQsFAAOCAQEALwIvMP8wvhUcMY3QMUGRJaEBE2A6doDYl4rP77Ys
s3Ge7beQwxZz96l0aWJXE8fpU3ClE7TJjOVHvJz4nO/Cm5pIHmXGxXESXsuDdKQD
QVgypnFHLddHR+9cQZ6Pmit/1e7otnjaMWVWCkxrzVsoJ6JfVteJv04awYiIxRHq
q3DGGrGDMjorV3p99x6hMO23Jw7z8azinEC72et+LYbNfyXpLdSqH7pjLXnEk/8o
bRvJuOpPq/tofB65uuPjdv0BDU4a2bMM6EIN2q4Gy5bHAtgxCQK5tUqBWPj40gkd
8AGyCrIL5xus6H4jFexFTb3JlCLpvxaW9i75guj2uGUw7Q==
-----END CERTIFICATE-----
