Certificate:
    Data:
        Version: 3 (0x2)
        Serial Number:
            76:77:8e:b6:27:11:41:9e:20:ff:5d:9c:5a:86:13:c7
        Signature Algorithm: sha256WithRSAEncryption
        Issuer: CN=ib-vpn
        Validity
            Not Before: Apr 16 06:36:52 2026 GMT
            Not After : Jul 19 06:36:52 2028 GMT
        Subject: CN=client_www
        Subject Public Key Info:
            Public Key Algorithm: rsaEncryption
                RSA Public-Key: (2048 bit)
                Modulus:
                    00:c3:be:79:a3:a2:f6:7b:37:24:3d:a3:55:1c:46:
                    7d:82:87:c1:30:01:de:38:fb:2b:9c:e5:1b:c7:42:
                    b4:85:05:72:62:32:7a:1d:e0:03:9c:6a:1b:44:5d:
                    90:64:11:99:3b:0f:b8:08:a4:d5:85:8a:c8:1b:9f:
                    19:fd:53:82:5d:ea:3c:42:8d:80:a0:d5:be:d5:d9:
                    00:3e:36:9b:5a:13:2d:9d:d2:8d:df:e5:9b:f8:5c:
                    76:16:6d:03:10:65:55:24:12:48:3e:91:d3:4b:43:
                    66:ce:c7:3a:85:aa:5e:71:39:96:82:8b:f0:9f:49:
                    ca:23:1c:19:7b:9b:5f:e4:fb:4f:e3:94:0b:fc:33:
                    28:a2:23:22:54:bc:59:b4:20:c9:0a:14:35:6b:d9:
                    71:82:51:6b:1f:86:b9:b4:f3:34:f6:5e:02:8d:c9:
                    a6:1f:3b:5a:dd:15:17:5e:f9:3c:eb:0f:85:88:3b:
                    b6:f5:1a:40:69:18:bf:4c:20:dd:a2:ae:49:f0:68:
                    06:76:74:3a:c4:81:89:76:74:a5:9d:d4:d7:41:60:
                    b7:d0:93:04:b5:90:9d:c1:8d:55:a2:2b:bc:72:45:
                    b5:9d:39:c1:7f:3a:d7:2d:a9:99:17:dd:b1:6a:31:
                    58:15:38:5b:6b:8e:ad:1f:5c:0f:df:a8:dc:c8:8c:
                    87:13
                Exponent: 65537 (0x10001)
        X509v3 extensions:
            X509v3 Basic Constraints: 
                CA:FALSE
            X509v3 Subject Key Identifier: 
                98:B7:CB:14:1E:E1:6B:7E:71:FA:B9:8A:DA:98:DE:12:8D:0B:96:B6
            X509v3 Authority Key Identifier: 
                keyid:DF:F0:39:F0:18:21:1F:9B:47:ED:B9:90:AA:38:3B:88:A9:E3:1E:7F
                DirName:/CN=ib-vpn
                serial:1E:C2:AE:BA:D4:84:7E:D4:92:A5:E6:AE:0F:86:A5:34:2F:72:08:BB

            X509v3 Extended Key Usage: 
                TLS Web Client Authentication
            X509v3 Key Usage: 
                Digital Signature
    Signature Algorithm: sha256WithRSAEncryption
         bc:b8:fd:31:a4:c3:11:a5:c4:2a:88:f1:20:df:81:2f:86:38:
         25:e2:67:d3:2e:50:4c:9e:bb:12:eb:84:bf:e4:fe:34:2c:df:
         81:7a:b5:f9:c4:90:31:48:54:c8:96:8d:22:61:fe:14:16:67:
         60:e9:89:b4:eb:74:ed:f6:be:55:d5:4e:b7:17:4c:d7:af:b5:
         4e:09:aa:bd:b7:16:ed:b4:2d:2c:7f:6d:6d:18:9f:35:fa:6c:
         44:4b:bb:dd:c8:9e:ab:ac:f8:c1:3f:60:e0:87:c1:17:73:8d:
         da:d9:7e:d9:7a:c8:18:59:46:03:ba:76:b7:c5:75:4d:9a:3a:
         18:32:4c:85:5c:79:0a:16:7b:04:52:0d:62:8e:62:02:cc:74:
         71:87:34:c1:12:46:bf:8d:8c:4c:81:76:fa:e7:65:70:31:1f:
         45:15:b3:72:18:98:bb:d7:04:10:b2:0d:ba:a5:5f:77:bf:49:
         2a:17:4d:37:0b:10:1f:9e:29:cf:df:0e:ad:b1:e2:10:a2:68:
         44:1d:c6:05:d4:04:e8:7f:e6:0f:56:fb:19:09:d4:a1:31:1d:
         19:e7:19:bf:9a:0d:af:73:a9:8c:14:00:eb:5a:4a:f8:99:18:
         34:db:7e:bb:7a:82:d1:70:8c:ee:d9:b7:17:be:f5:79:08:27:
         88:f4:f9:a2
-----BEGIN CERTIFICATE-----
MIIDTjCCAjagAwIBAgIQdneOticRQZ4g/12cWoYTxzANBgkqhkiG9w0BAQsFADAR
MQ8wDQYDVQQDDAZpYi12cG4wHhcNMjYwNDE2MDYzNjUyWhcNMjgwNzE5MDYzNjUy
WjAVMRMwEQYDVQQDDApjbGllbnRfd3d3MIIBIjANBgkqhkiG9w0BAQEFAAOCAQ8A
MIIBCgKCAQEAw755o6L2ezckPaNVHEZ9gofBMAHeOPsrnOUbx0K0hQVyYjJ6HeAD
nGobRF2QZBGZOw+4CKTVhYrIG58Z/VOCXeo8Qo2AoNW+1dkAPjabWhMtndKN3+Wb
+Fx2Fm0DEGVVJBJIPpHTS0Nmzsc6hapecTmWgovwn0nKIxwZe5tf5PtP45QL/DMo
oiMiVLxZtCDJChQ1a9lxglFrH4a5tPM09l4CjcmmHzta3RUXXvk86w+FiDu29RpA
aRi/TCDdoq5J8GgGdnQ6xIGJdnSlndTXQWC30JMEtZCdwY1Voiu8ckW1nTnBfzrX
LamZF92xajFYFThba46tH1wP36jcyIyHEwIDAQABo4GdMIGaMAkGA1UdEwQCMAAw
HQYDVR0OBBYEFJi3yxQe4Wt+cfq5itqY3hKNC5a2MEwGA1UdIwRFMEOAFN/wOfAY
IR+bR+25kKo4O4ip4x5/oRWkEzARMQ8wDQYDVQQDDAZpYi12cG6CFB7CrrrUhH7U
kqXmrg+GpTQvcgi7MBMGA1UdJQQMMAoGCCsGAQUFBwMCMAsGA1UdDwQEAwIHgDAN
BgkqhkiG9w0BAQsFAAOCAQEAvLj9MaTDEaXEKojxIN+BL4Y4JeJn0y5QTJ67EuuE
v+T+NCzfgXq1+cSQMUhUyJaNImH+FBZnYOmJtOt07fa+VdVOtxdM16+1TgmqvbcW
7bQtLH9tbRifNfpsREu73cieq6z4wT9g4IfBF3ON2tl+2XrIGFlGA7p2t8V1TZo6
GDJMhVx5ChZ7BFINYo5iAsx0cYc0wRJGv42MTIF2+udlcDEfRRWzchiYu9cEELIN
uqVfd79JKhdNNwsQH54pz98OrbHiEKJoRB3GBdQE6H/mD1b7GQnUoTEdGecZv5oN
r3OpjBQA61pK+JkYNNt+u3qC0XCM7tm3F771eQgniPT5og==
-----END CERTIFICATE-----
