Certificate:
    Data:
        Version: 3 (0x2)
        Serial Number:
            ae:47:3e:e2:03:a9:27:1a:ef:a5:c6:a8:20:cb:b4:a9
        Signature Algorithm: sha256WithRSAEncryption
        Issuer: CN=ib-vpn
        Validity
            Not Before: Apr 14 11:15:20 2026 GMT
            Not After : Jul 17 11:15:20 2028 GMT
        Subject: CN=client_LOX
        Subject Public Key Info:
            Public Key Algorithm: rsaEncryption
                RSA Public-Key: (2048 bit)
                Modulus:
                    00:c9:a4:98:a2:32:22:cf:ab:ad:d2:12:b4:c1:57:
                    f7:9b:6d:c2:af:f3:86:54:2b:99:4c:cb:b2:db:a3:
                    cc:b7:42:08:8c:0d:62:19:eb:46:0b:7d:4d:62:80:
                    d0:0b:8e:d8:b3:4a:6d:54:f0:ff:7c:55:9d:49:bc:
                    0a:01:95:18:dc:cd:b5:74:d1:dd:b7:fa:31:48:fd:
                    86:08:34:e8:ae:01:c4:c2:62:da:44:8d:22:06:51:
                    ed:17:f9:0e:87:fa:85:21:48:da:d7:f6:38:c9:62:
                    a6:85:ba:1f:d4:4e:6d:a0:eb:a3:fd:dd:1e:c3:e8:
                    98:4e:37:40:6d:f9:0b:16:28:34:d1:a4:8d:6a:c3:
                    03:0f:75:71:d0:8f:73:f9:82:65:90:01:69:1f:ca:
                    76:09:34:63:f7:24:fa:55:9d:85:71:f1:fc:91:90:
                    97:e5:5e:d1:4e:ea:98:81:8c:50:39:26:e6:25:6a:
                    fc:59:ec:c3:ef:dc:4a:43:40:0a:12:f7:ac:d1:f0:
                    f6:c1:ac:b5:49:f0:e6:f9:ee:a6:94:9a:e4:7e:08:
                    ce:fc:44:05:87:c0:23:74:73:30:82:10:15:16:a9:
                    1e:77:66:0a:15:5c:e3:93:5e:52:a2:e6:ca:69:8b:
                    56:81:6f:af:ef:5a:56:b2:71:9c:f1:e6:24:20:47:
                    d6:25
                Exponent: 65537 (0x10001)
        X509v3 extensions:
            X509v3 Basic Constraints: 
                CA:FALSE
            X509v3 Subject Key Identifier: 
                7C:79:90:7A:ED:F3:FE:6D:05:39:41:A6:C2:F6:F6:E6:2C:47:0C:3A
            X509v3 Authority Key Identifier: 
                keyid:DF:F0:39:F0:18:21:1F:9B:47:ED:B9:90:AA:38:3B:88:A9:E3:1E:7F
                DirName:/CN=ib-vpn
                serial:1E:C2:AE:BA:D4:84:7E:D4:92:A5:E6:AE:0F:86:A5:34:2F:72:08:BB

            X509v3 Extended Key Usage: 
                TLS Web Client Authentication
            X509v3 Key Usage: 
                Digital Signature
    Signature Algorithm: sha256WithRSAEncryption
         78:23:d4:5b:27:ca:e8:11:e6:9d:5f:d5:b1:ad:3e:62:c3:03:
         67:6b:4a:dd:a9:2c:03:db:d5:95:19:03:ee:98:5e:db:65:22:
         67:5b:ca:e4:36:f4:bc:f7:50:ee:21:f0:c2:44:a3:a5:8b:24:
         b1:1a:05:88:25:1a:b8:c8:cf:f5:3a:34:61:91:da:51:b4:13:
         de:d3:dc:f7:1b:b1:f5:a4:5a:17:e4:e8:ee:56:af:31:43:a3:
         0e:44:01:b3:d9:d3:de:92:65:6f:1c:7e:d9:90:d6:7f:f7:42:
         16:09:bf:4f:26:b8:2d:dc:4a:bf:9a:94:72:f7:8c:d4:ba:38:
         af:d0:29:4e:a5:7a:6b:b7:15:6d:db:9a:a3:4c:b5:8c:62:45:
         9d:a2:5a:81:5b:bf:3b:62:08:c9:00:b3:c3:4b:db:d4:53:b2:
         55:e8:6f:f2:7d:c0:d1:91:34:5d:6a:4f:86:38:9f:51:4b:1e:
         11:e0:9a:17:c0:a8:78:a4:cb:68:b4:ba:35:0c:21:a7:98:4d:
         3d:ad:0b:b4:ae:c0:24:88:ee:e2:f1:89:5d:2e:aa:8a:98:ae:
         04:da:fd:e5:9c:0b:41:f4:11:c4:a3:f1:67:e5:da:0f:f2:6d:
         2a:80:40:68:e2:08:c1:4f:09:b2:11:21:6a:e4:4c:92:5a:c7:
         9d:bc:54:fa
-----BEGIN CERTIFICATE-----
MIIDTzCCAjegAwIBAgIRAK5HPuIDqSca76XGqCDLtKkwDQYJKoZIhvcNAQELBQAw
ETEPMA0GA1UEAwwGaWItdnBuMB4XDTI2MDQxNDExMTUyMFoXDTI4MDcxNzExMTUy
MFowFTETMBEGA1UEAwwKY2xpZW50X0xPWDCCASIwDQYJKoZIhvcNAQEBBQADggEP
ADCCAQoCggEBAMmkmKIyIs+rrdIStMFX95ttwq/zhlQrmUzLstujzLdCCIwNYhnr
Rgt9TWKA0AuO2LNKbVTw/3xVnUm8CgGVGNzNtXTR3bf6MUj9hgg06K4BxMJi2kSN
IgZR7Rf5Dof6hSFI2tf2OMlipoW6H9RObaDro/3dHsPomE43QG35CxYoNNGkjWrD
Aw91cdCPc/mCZZABaR/Kdgk0Y/ck+lWdhXHx/JGQl+Ve0U7qmIGMUDkm5iVq/Fns
w+/cSkNAChL3rNHw9sGstUnw5vnuppSa5H4IzvxEBYfAI3RzMIIQFRapHndmChVc
45NeUqLmymmLVoFvr+9aVrJxnPHmJCBH1iUCAwEAAaOBnTCBmjAJBgNVHRMEAjAA
MB0GA1UdDgQWBBR8eZB67fP+bQU5QabC9vbmLEcMOjBMBgNVHSMERTBDgBTf8Dnw
GCEfm0ftuZCqODuIqeMef6EVpBMwETEPMA0GA1UEAwwGaWItdnBughQewq661IR+
1JKl5q4PhqU0L3IIuzATBgNVHSUEDDAKBggrBgEFBQcDAjALBgNVHQ8EBAMCB4Aw
DQYJKoZIhvcNAQELBQADggEBAHgj1FsnyugR5p1f1bGtPmLDA2drSt2pLAPb1ZUZ
A+6YXttlImdbyuQ29Lz3UO4h8MJEo6WLJLEaBYglGrjIz/U6NGGR2lG0E97T3Pcb
sfWkWhfk6O5WrzFDow5EAbPZ096SZW8cftmQ1n/3QhYJv08muC3cSr+alHL3jNS6
OK/QKU6lemu3FW3bmqNMtYxiRZ2iWoFbvztiCMkAs8NL29RTslXob/J9wNGRNF1q
T4Y4n1FLHhHgmhfAqHiky2i0ujUMIaeYTT2tC7SuwCSI7uLxiV0uqoqYrgTa/eWc
C0H0EcSj8Wfl2g/ybSqAQGjiCMFPCbIRIWrkTJJax528VPo=
-----END CERTIFICATE-----
