Certificate:
    Data:
        Version: 3 (0x2)
        Serial Number:
            eb:7e:a2:19:53:0b:3e:8e:14:15:01:1d:2a:4e:76:a4
        Signature Algorithm: sha256WithRSAEncryption
        Issuer: CN=ib-vpn
        Validity
            Not Before: Apr 16 07:36:32 2026 GMT
            Not After : Jul 19 07:36:32 2028 GMT
        Subject: CN=client_ttt
        Subject Public Key Info:
            Public Key Algorithm: rsaEncryption
                RSA Public-Key: (2048 bit)
                Modulus:
                    00:a7:18:97:b0:cc:6b:5f:3e:30:b2:b1:89:17:ed:
                    bc:cc:d5:f2:03:ec:d4:80:ed:6a:82:e2:67:95:72:
                    42:20:28:8f:54:2f:99:bf:d0:ef:8c:8a:ee:68:25:
                    bc:27:52:05:fc:3b:40:9b:43:f1:6a:89:ff:fd:d0:
                    d4:05:22:bc:85:fb:10:2a:d6:cc:82:4c:52:dc:20:
                    73:44:fa:6e:fe:a6:49:30:5b:cb:fb:3e:88:fc:52:
                    34:ff:77:9c:16:30:6f:fd:a7:fa:0a:ba:12:8a:fe:
                    0f:68:87:b0:bc:e3:52:04:51:32:a4:dd:25:57:94:
                    cd:bf:ca:e5:49:2b:2b:b8:17:89:8b:97:22:0f:04:
                    22:13:7c:a7:4a:0a:f7:69:4b:a4:4e:e3:1b:aa:69:
                    82:37:98:08:38:b1:fc:ca:c2:03:4b:f6:fe:33:0e:
                    2c:8a:06:37:c2:b9:b4:d1:68:0b:86:25:60:c5:71:
                    6d:63:f6:2a:c1:b2:1d:15:e7:80:b9:3d:8e:f1:b7:
                    97:01:e5:a4:9d:2b:a1:63:e9:19:a5:2a:80:2a:90:
                    b9:68:57:b4:2e:13:2c:96:97:75:f7:da:85:9b:73:
                    98:a4:e7:91:82:c3:60:3a:fe:ce:5d:11:07:9a:b5:
                    75:38:0a:bd:e2:c2:1f:fe:67:2d:30:88:af:58:91:
                    11:93
                Exponent: 65537 (0x10001)
        X509v3 extensions:
            X509v3 Basic Constraints: 
                CA:FALSE
            X509v3 Subject Key Identifier: 
                42:F8:A6:5B:50:43:0A:5F:DE:80:E0:BB:F1:CB:D6:42:19:99:7A:89
            X509v3 Authority Key Identifier: 
                keyid:DF:F0:39:F0:18:21:1F:9B:47:ED:B9:90:AA:38:3B:88:A9:E3:1E:7F
                DirName:/CN=ib-vpn
                serial:1E:C2:AE:BA:D4:84:7E:D4:92:A5:E6:AE:0F:86:A5:34:2F:72:08:BB

            X509v3 Extended Key Usage: 
                TLS Web Client Authentication
            X509v3 Key Usage: 
                Digital Signature
    Signature Algorithm: sha256WithRSAEncryption
         2a:df:47:5b:a1:64:46:87:fc:6a:f0:4f:4c:0c:cc:12:fd:0d:
         f3:84:b4:81:39:9b:16:e1:f5:93:b8:e0:9f:8e:91:4a:4d:39:
         e7:50:b3:27:2e:11:b9:64:06:76:3d:e4:f5:12:95:ab:86:2d:
         bb:06:13:da:00:91:05:06:e6:df:3c:2e:a9:6b:ca:b3:d2:c3:
         86:f2:f6:1d:7d:b1:20:b4:35:58:ad:af:c5:a8:4e:66:a8:62:
         0a:21:75:1e:07:df:5e:46:f9:1b:ad:c9:19:1b:a9:a2:08:59:
         68:9e:5f:ff:e5:24:20:f2:28:5f:dc:83:05:3b:25:b4:c3:91:
         54:58:d6:a9:fa:cc:70:1d:a6:02:2b:cc:25:2a:f0:7c:71:d2:
         9e:ca:d3:5a:24:83:26:bc:f9:2a:7a:00:da:0d:c1:e0:35:b3:
         0b:ba:d2:0d:9a:f4:6e:11:8a:aa:f8:7a:5e:d3:6f:3b:d2:63:
         12:10:dd:ce:94:ea:b1:f6:4a:2e:e8:2e:2a:ff:de:11:60:36:
         c1:f9:29:26:10:ad:ba:f0:1a:f4:2f:30:07:27:04:df:e6:11:
         c7:7d:fc:05:db:19:d4:59:4f:fc:7b:42:8f:69:7f:cd:b4:d1:
         4b:53:9f:ef:98:24:16:41:28:97:42:6b:76:35:5a:fc:48:80:
         60:06:63:90
-----BEGIN CERTIFICATE-----
MIIDTzCCAjegAwIBAgIRAOt+ohlTCz6OFBUBHSpOdqQwDQYJKoZIhvcNAQELBQAw
ETEPMA0GA1UEAwwGaWItdnBuMB4XDTI2MDQxNjA3MzYzMloXDTI4MDcxOTA3MzYz
MlowFTETMBEGA1UEAwwKY2xpZW50X3R0dDCCASIwDQYJKoZIhvcNAQEBBQADggEP
ADCCAQoCggEBAKcYl7DMa18+MLKxiRftvMzV8gPs1IDtaoLiZ5VyQiAoj1Qvmb/Q
74yK7mglvCdSBfw7QJtD8WqJ//3Q1AUivIX7ECrWzIJMUtwgc0T6bv6mSTBby/s+
iPxSNP93nBYwb/2n+gq6Eor+D2iHsLzjUgRRMqTdJVeUzb/K5UkrK7gXiYuXIg8E
IhN8p0oK92lLpE7jG6ppgjeYCDix/MrCA0v2/jMOLIoGN8K5tNFoC4YlYMVxbWP2
KsGyHRXngLk9jvG3lwHlpJ0roWPpGaUqgCqQuWhXtC4TLJaXdffahZtzmKTnkYLD
YDr+zl0RB5q1dTgKveLCH/5nLTCIr1iREZMCAwEAAaOBnTCBmjAJBgNVHRMEAjAA
MB0GA1UdDgQWBBRC+KZbUEMKX96A4Lvxy9ZCGZl6iTBMBgNVHSMERTBDgBTf8Dnw
GCEfm0ftuZCqODuIqeMef6EVpBMwETEPMA0GA1UEAwwGaWItdnBughQewq661IR+
1JKl5q4PhqU0L3IIuzATBgNVHSUEDDAKBggrBgEFBQcDAjALBgNVHQ8EBAMCB4Aw
DQYJKoZIhvcNAQELBQADggEBACrfR1uhZEaH/GrwT0wMzBL9DfOEtIE5mxbh9ZO4
4J+OkUpNOedQsycuEblkBnY95PUSlauGLbsGE9oAkQUG5t88LqlryrPSw4by9h19
sSC0NVitr8WoTmaoYgohdR4H315G+RutyRkbqaIIWWieX//lJCDyKF/cgwU7JbTD
kVRY1qn6zHAdpgIrzCUq8Hxx0p7K01okgya8+Sp6ANoNweA1swu60g2a9G4Riqr4
el7TbzvSYxIQ3c6U6rH2Si7oLir/3hFgNsH5KSYQrbrwGvQvMAcnBN/mEcd9/AXb
GdRZT/x7Qo9pf8200UtTn++YJBZBKJdCa3Y1WvxIgGAGY5A=
-----END CERTIFICATE-----
