Certificate:
    Data:
        Version: 3 (0x2)
        Serial Number:
            f6:3e:6c:e7:12:2f:c1:22:fe:7a:42:06:84:86:8c:80
        Signature Algorithm: sha256WithRSAEncryption
        Issuer: CN=ib-vpn
        Validity
            Not Before: Apr 16 07:25:34 2026 GMT
            Not After : Jul 19 07:25:34 2028 GMT
        Subject: CN=client_rrr
        Subject Public Key Info:
            Public Key Algorithm: rsaEncryption
                RSA Public-Key: (2048 bit)
                Modulus:
                    00:cc:05:7b:97:6e:79:58:5d:47:96:ba:c8:c8:a4:
                    66:d4:c8:8c:6f:26:be:8e:13:ce:a5:92:fd:76:46:
                    4f:cb:97:e1:d8:2c:e4:53:73:35:5b:1d:a1:ec:3e:
                    bb:7c:32:fd:07:1d:8a:86:d0:34:41:92:9a:78:5f:
                    28:f8:a9:9c:f6:bc:78:a3:f9:44:b5:74:70:64:c3:
                    ca:3e:34:35:fa:c6:f2:aa:55:a6:12:97:7b:6d:df:
                    ba:40:43:ab:71:cd:6f:10:49:0d:8c:ae:3a:c7:da:
                    ae:e5:78:9c:29:cf:cf:3e:fc:c8:88:d2:49:e3:2c:
                    4e:68:5f:51:e6:68:ec:41:50:d2:c4:d0:64:32:df:
                    f4:44:cc:d0:37:77:f0:6e:ff:87:b5:63:b3:37:96:
                    21:a2:b8:f5:4d:d6:e2:04:1a:67:34:4d:4b:ac:1b:
                    13:bd:86:ec:75:a2:ab:58:6b:e9:ce:d3:d4:a3:f7:
                    58:d0:59:ac:2f:23:ad:b1:db:33:e7:cb:09:f0:27:
                    dc:48:e4:c2:1f:78:63:26:70:c1:78:61:fc:4d:72:
                    32:2b:71:1a:95:6c:b0:f1:9b:e4:e6:b8:50:3d:7b:
                    99:1f:c0:66:23:a6:84:d9:88:9a:e7:2b:a4:2c:55:
                    3e:81:c7:a1:73:2e:7f:2d:94:7f:c6:9e:e8:38:f0:
                    3b:6f
                Exponent: 65537 (0x10001)
        X509v3 extensions:
            X509v3 Basic Constraints: 
                CA:FALSE
            X509v3 Subject Key Identifier: 
                13:F5:34:8A:5F:D8:A7:4D:3B:C9:0A:8F:28:32:6D:3B:45:B5:4B:F8
            X509v3 Authority Key Identifier: 
                keyid:DF:F0:39:F0:18:21:1F:9B:47:ED:B9:90:AA:38:3B:88:A9:E3:1E:7F
                DirName:/CN=ib-vpn
                serial:1E:C2:AE:BA:D4:84:7E:D4:92:A5:E6:AE:0F:86:A5:34:2F:72:08:BB

            X509v3 Extended Key Usage: 
                TLS Web Client Authentication
            X509v3 Key Usage: 
                Digital Signature
    Signature Algorithm: sha256WithRSAEncryption
         44:bb:78:f3:49:cf:97:f9:2b:4a:61:90:30:87:10:f9:e2:97:
         e4:51:49:23:af:47:48:e4:cb:b8:5f:32:d9:97:e2:83:25:c0:
         11:77:4b:fb:f7:63:a3:e0:dc:16:62:bf:eb:7d:67:83:5f:a1:
         7a:b8:5e:00:7c:4c:5a:c2:fd:ef:2b:8c:e2:59:48:da:cb:68:
         3a:34:95:bb:5c:16:76:e7:53:0f:01:da:91:95:79:5f:c9:75:
         8e:26:d3:cb:36:c3:93:a8:b8:c0:02:ec:ba:c0:9f:d8:00:19:
         a8:9a:76:80:f0:92:49:a0:99:7e:22:fa:e4:fb:34:8f:ca:f7:
         1a:ec:83:9e:a7:c2:32:0f:bd:1c:de:42:64:e3:d6:c0:ac:6d:
         31:2f:ed:a1:4f:0f:b8:e7:75:d2:57:f3:ea:38:83:2d:78:5a:
         f1:ab:65:59:74:8c:aa:26:33:cf:3e:9b:01:fc:49:92:85:2c:
         e7:7d:a5:93:a8:33:60:10:4c:7e:90:9f:e0:61:18:66:70:64:
         db:51:cd:2c:dc:c0:23:55:35:4d:58:76:36:53:40:84:e4:b9:
         00:3c:5d:77:39:5e:32:96:f5:86:5e:fc:e0:77:ec:c0:a9:dd:
         4c:64:f3:18:01:23:4e:ba:cd:a5:b3:f5:d9:63:fd:60:4b:c5:
         bc:4c:12:e7
-----BEGIN CERTIFICATE-----
MIIDTzCCAjegAwIBAgIRAPY+bOcSL8Ei/npCBoSGjIAwDQYJKoZIhvcNAQELBQAw
ETEPMA0GA1UEAwwGaWItdnBuMB4XDTI2MDQxNjA3MjUzNFoXDTI4MDcxOTA3MjUz
NFowFTETMBEGA1UEAwwKY2xpZW50X3JycjCCASIwDQYJKoZIhvcNAQEBBQADggEP
ADCCAQoCggEBAMwFe5dueVhdR5a6yMikZtTIjG8mvo4TzqWS/XZGT8uX4dgs5FNz
NVsdoew+u3wy/QcdiobQNEGSmnhfKPipnPa8eKP5RLV0cGTDyj40NfrG8qpVphKX
e23fukBDq3HNbxBJDYyuOsfaruV4nCnPzz78yIjSSeMsTmhfUeZo7EFQ0sTQZDLf
9ETM0Dd38G7/h7VjszeWIaK49U3W4gQaZzRNS6wbE72G7HWiq1hr6c7T1KP3WNBZ
rC8jrbHbM+fLCfAn3Ejkwh94YyZwwXhh/E1yMitxGpVssPGb5Oa4UD17mR/AZiOm
hNmImucrpCxVPoHHoXMufy2Uf8ae6DjwO28CAwEAAaOBnTCBmjAJBgNVHRMEAjAA
MB0GA1UdDgQWBBQT9TSKX9inTTvJCo8oMm07RbVL+DBMBgNVHSMERTBDgBTf8Dnw
GCEfm0ftuZCqODuIqeMef6EVpBMwETEPMA0GA1UEAwwGaWItdnBughQewq661IR+
1JKl5q4PhqU0L3IIuzATBgNVHSUEDDAKBggrBgEFBQcDAjALBgNVHQ8EBAMCB4Aw
DQYJKoZIhvcNAQELBQADggEBAES7ePNJz5f5K0phkDCHEPnil+RRSSOvR0jky7hf
MtmX4oMlwBF3S/v3Y6Pg3BZiv+t9Z4NfoXq4XgB8TFrC/e8rjOJZSNrLaDo0lbtc
FnbnUw8B2pGVeV/JdY4m08s2w5OouMAC7LrAn9gAGaiadoDwkkmgmX4i+uT7NI/K
9xrsg56nwjIPvRzeQmTj1sCsbTEv7aFPD7jnddJX8+o4gy14WvGrZVl0jKomM88+
mwH8SZKFLOd9pZOoM2AQTH6Qn+BhGGZwZNtRzSzcwCNVNU1YdjZTQITkuQA8XXc5
XjKW9YZe/OB37MCp3Uxk8xgBI066zaWz9dlj/WBLxbxMEuc=
-----END CERTIFICATE-----
