Certificate:
    Data:
        Version: 3 (0x2)
        Serial Number:
            1a:86:6d:6f:80:9b:e1:5c:9f:08:44:af:f0:a4:85:aa
        Signature Algorithm: sha256WithRSAEncryption
        Issuer: CN=ib-vpn
        Validity
            Not Before: May 17 09:33:25 2026 GMT
            Not After : Aug 19 09:33:25 2028 GMT
        Subject: CN=client_testuser1
        Subject Public Key Info:
            Public Key Algorithm: rsaEncryption
                RSA Public-Key: (2048 bit)
                Modulus:
                    00:c1:22:60:bf:bd:55:4b:82:2d:9e:57:92:9e:fe:
                    e7:d6:6b:6b:ab:31:8d:26:cb:10:26:1d:59:9b:83:
                    1a:0e:d2:bb:b4:a7:f6:c8:09:db:5a:d0:bc:22:fd:
                    e4:18:e5:3a:09:67:31:01:f6:1a:14:06:cc:80:91:
                    e8:60:ab:d4:24:3e:76:d7:71:87:3e:42:4f:1b:6b:
                    be:6f:04:39:1f:35:b0:4a:0d:47:96:9d:d7:04:8e:
                    72:17:2b:d5:d2:de:aa:af:9e:cc:36:80:f3:6e:dc:
                    09:df:cf:28:45:83:a9:cb:6c:5a:4f:56:cc:fc:ca:
                    e6:d8:f5:e7:dd:9f:ac:62:b1:e1:a5:25:0d:00:94:
                    01:b5:95:92:5c:6d:d1:2e:9c:05:da:65:4d:ec:b0:
                    f8:5f:2c:36:f7:09:80:3b:5a:2a:b0:d4:14:7e:5b:
                    d4:22:34:f3:05:59:db:00:de:d6:ab:d0:d6:0a:a5:
                    54:59:8a:46:6a:7d:7f:e1:c1:42:6f:c5:a6:55:3f:
                    60:0b:6c:da:35:79:b0:ee:01:39:17:2c:a9:f8:ea:
                    42:3c:67:b3:e5:ae:d7:d7:f7:18:2a:8b:03:26:3f:
                    45:fb:a5:4d:9b:9d:3f:e0:9b:69:7c:6c:20:be:d0:
                    8e:a1:7b:47:8d:22:4b:3b:4b:d6:ad:42:ae:ab:11:
                    36:57
                Exponent: 65537 (0x10001)
        X509v3 extensions:
            X509v3 Basic Constraints: 
                CA:FALSE
            X509v3 Subject Key Identifier: 
                92:FE:02:2F:B4:EF:31:89:5D:A8:3B:B3:B8:DB:3E:27:CE:5A:21:93
            X509v3 Authority Key Identifier: 
                keyid:DF:F0:39:F0:18:21:1F:9B:47:ED:B9:90:AA:38:3B:88:A9:E3:1E:7F
                DirName:/CN=ib-vpn
                serial:1E:C2:AE:BA:D4:84:7E:D4:92:A5:E6:AE:0F:86:A5:34:2F:72:08:BB

            X509v3 Extended Key Usage: 
                TLS Web Client Authentication
            X509v3 Key Usage: 
                Digital Signature
    Signature Algorithm: sha256WithRSAEncryption
         34:dd:5b:d5:0d:43:f4:34:62:9c:3c:34:1d:66:66:b7:4a:ed:
         52:f9:80:43:5e:ec:cd:22:b5:70:06:98:2e:31:78:9e:49:43:
         c3:76:1c:87:66:1d:9a:88:78:72:ea:7e:91:89:90:39:39:30:
         7f:ec:4e:14:c2:3e:74:22:b2:a4:e2:40:3c:c0:98:53:3b:f4:
         ef:60:51:32:a1:8c:17:23:f1:41:fc:bb:4d:b8:fc:b0:67:c1:
         f7:76:73:81:77:b8:41:d2:ae:f3:62:13:b7:7b:bd:6c:6e:04:
         43:0c:76:f6:6f:e3:08:d9:53:00:ee:03:0b:aa:13:1f:8b:3d:
         63:97:63:3a:31:bb:78:6e:33:5f:ce:22:66:71:09:57:00:8c:
         15:30:e2:59:4f:ab:b4:2d:1b:b5:ba:06:75:76:31:df:86:0a:
         03:78:e3:58:32:67:cb:8b:f8:7e:ae:bf:47:3f:6d:73:7d:cc:
         12:09:7e:61:a6:37:13:b9:bf:a4:54:cd:3c:c3:ea:f9:36:f5:
         63:c4:fe:44:8b:7c:ed:72:42:1f:67:2e:70:07:45:3f:f9:a2:
         3c:6d:1a:e0:88:a6:63:b7:9e:09:5d:b2:f7:19:32:b3:71:10:
         9e:1b:76:72:29:af:89:74:0a:4c:0d:9b:38:ad:68:12:5b:0b:
         5f:22:69:07
-----BEGIN CERTIFICATE-----
MIIDVDCCAjygAwIBAgIQGoZtb4Cb4VyfCESv8KSFqjANBgkqhkiG9w0BAQsFADAR
MQ8wDQYDVQQDDAZpYi12cG4wHhcNMjYwNTE3MDkzMzI1WhcNMjgwODE5MDkzMzI1
WjAbMRkwFwYDVQQDDBBjbGllbnRfdGVzdHVzZXIxMIIBIjANBgkqhkiG9w0BAQEF
AAOCAQ8AMIIBCgKCAQEAwSJgv71VS4ItnleSnv7n1mtrqzGNJssQJh1Zm4MaDtK7
tKf2yAnbWtC8Iv3kGOU6CWcxAfYaFAbMgJHoYKvUJD5213GHPkJPG2u+bwQ5HzWw
Sg1Hlp3XBI5yFyvV0t6qr57MNoDzbtwJ388oRYOpy2xaT1bM/Mrm2PXn3Z+sYrHh
pSUNAJQBtZWSXG3RLpwF2mVN7LD4Xyw29wmAO1oqsNQUflvUIjTzBVnbAN7Wq9DW
CqVUWYpGan1/4cFCb8WmVT9gC2zaNXmw7gE5Fyyp+OpCPGez5a7X1/cYKosDJj9F
+6VNm50/4JtpfGwgvtCOoXtHjSJLO0vWrUKuqxE2VwIDAQABo4GdMIGaMAkGA1Ud
EwQCMAAwHQYDVR0OBBYEFJL+Ai+07zGJXag7s7jbPifOWiGTMEwGA1UdIwRFMEOA
FN/wOfAYIR+bR+25kKo4O4ip4x5/oRWkEzARMQ8wDQYDVQQDDAZpYi12cG6CFB7C
rrrUhH7UkqXmrg+GpTQvcgi7MBMGA1UdJQQMMAoGCCsGAQUFBwMCMAsGA1UdDwQE
AwIHgDANBgkqhkiG9w0BAQsFAAOCAQEANN1b1Q1D9DRinDw0HWZmt0rtUvmAQ17s
zSK1cAaYLjF4nklDw3Ych2Ydmoh4cup+kYmQOTkwf+xOFMI+dCKypOJAPMCYUzv0
72BRMqGMFyPxQfy7Tbj8sGfB93ZzgXe4QdKu82ITt3u9bG4EQwx29m/jCNlTAO4D
C6oTH4s9Y5djOjG7eG4zX84iZnEJVwCMFTDiWU+rtC0btboGdXYx34YKA3jjWDJn
y4v4fq6/Rz9tc33MEgl+YaY3E7m/pFTNPMPq+Tb1Y8T+RIt87XJCH2cucAdFP/mi
PG0a4IimY7eeCV2y9xkys3EQnht2cimviXQKTA2bOK1oElsLXyJpBw==
-----END CERTIFICATE-----
