Certificate:
    Data:
        Version: 3 (0x2)
        Serial Number:
            26:f0:ab:df:36:f0:0e:1d:79:23:37:89:68:6c:f9:bb
        Signature Algorithm: sha256WithRSAEncryption
        Issuer: CN=ib-vpn
        Validity
            Not Before: Apr 16 06:06:52 2026 GMT
            Not After : Jul 19 06:06:52 2028 GMT
        Subject: CN=client_LOX
        Subject Public Key Info:
            Public Key Algorithm: rsaEncryption
                RSA Public-Key: (2048 bit)
                Modulus:
                    00:e4:cb:db:e2:00:5a:42:ad:ee:c0:0a:b2:4d:d2:
                    0e:ef:50:4e:a9:21:4d:b9:63:8a:d6:2a:7d:18:65:
                    2d:3f:90:6c:30:79:ca:bc:fe:c0:aa:7e:fa:07:ed:
                    99:2b:4f:40:f0:53:82:ab:03:89:5a:1f:02:58:f6:
                    88:86:74:ac:5a:97:aa:04:4c:47:67:de:9f:01:e5:
                    eb:ff:de:ec:bb:e9:bd:5b:5c:e2:30:26:00:e9:21:
                    f0:ee:23:d3:d0:16:9c:75:e3:7e:1e:b2:f6:64:13:
                    76:a7:91:4f:c6:2a:05:88:ac:5d:d3:7d:64:b6:fe:
                    21:f4:62:3c:a1:3d:c6:67:48:04:bf:29:ae:a8:b7:
                    a2:ad:76:c4:5c:28:37:fe:42:7f:f3:1d:79:a1:23:
                    8d:7f:51:e9:4c:1a:4c:7f:c3:49:9b:21:f8:60:93:
                    f7:c5:fc:8c:02:76:8d:46:2b:20:b3:e0:79:55:03:
                    72:ad:03:f1:f0:2a:f0:23:47:14:8e:a8:c1:f7:14:
                    10:1c:b8:b3:c8:4e:e2:b2:7e:89:36:06:ed:2a:f1:
                    20:72:61:0c:ea:46:8f:38:a0:ca:31:2f:99:3b:e0:
                    2c:32:f4:88:13:91:ac:57:c5:b3:ab:09:99:11:26:
                    a9:b9:1a:06:f3:d1:71:46:c0:fc:4a:49:39:8e:66:
                    c9:af
                Exponent: 65537 (0x10001)
        X509v3 extensions:
            X509v3 Basic Constraints: 
                CA:FALSE
            X509v3 Subject Key Identifier: 
                F9:97:51:12:77:68:BF:97:58:CD:6F:C1:DE:AA:AF:31:07:FB:70:75
            X509v3 Authority Key Identifier: 
                keyid:DF:F0:39:F0:18:21:1F:9B:47:ED:B9:90:AA:38:3B:88:A9:E3:1E:7F
                DirName:/CN=ib-vpn
                serial:1E:C2:AE:BA:D4:84:7E:D4:92:A5:E6:AE:0F:86:A5:34:2F:72:08:BB

            X509v3 Extended Key Usage: 
                TLS Web Client Authentication
            X509v3 Key Usage: 
                Digital Signature
    Signature Algorithm: sha256WithRSAEncryption
         73:43:cb:30:93:99:35:0e:76:ce:85:48:a4:c2:5b:91:34:85:
         9c:6c:9c:ae:80:4e:53:64:95:5b:84:18:44:89:5b:c8:da:90:
         b2:2b:05:63:81:8e:b1:f7:48:71:48:30:4e:30:93:01:eb:c9:
         58:57:47:4b:ea:48:f0:18:26:fc:ef:5d:4b:7f:b4:d1:e8:45:
         35:c8:52:4b:b4:58:49:29:00:fe:67:38:54:c1:cd:36:5b:3c:
         78:ba:38:7d:dd:77:11:10:1f:a4:70:2c:7d:47:a1:22:c6:f5:
         2a:0a:17:17:24:ca:e6:03:ca:63:6e:d9:2e:a1:9b:a1:33:66:
         2e:36:d8:40:b6:d2:07:7e:c4:c1:4e:0e:5b:72:f3:8d:3e:ea:
         a0:ac:23:11:b2:44:7b:94:81:56:78:12:cf:72:86:59:58:df:
         4a:aa:b8:85:08:96:90:bb:4e:86:62:ae:71:59:12:18:85:2b:
         a9:f0:d5:d6:65:95:9b:b8:0e:62:d7:7b:49:a2:ea:4d:1a:01:
         7f:b9:49:1a:a9:bf:d8:4a:d4:f1:d3:40:a1:9d:7b:6e:71:3b:
         91:41:5d:4a:8d:b6:db:8a:89:ea:f9:97:73:17:b6:2f:2c:13:
         40:b5:d1:28:fe:f7:58:de:2f:06:eb:80:79:2d:e2:88:e6:03:
         87:49:6a:56
-----BEGIN CERTIFICATE-----
MIIDTjCCAjagAwIBAgIQJvCr3zbwDh15IzeJaGz5uzANBgkqhkiG9w0BAQsFADAR
MQ8wDQYDVQQDDAZpYi12cG4wHhcNMjYwNDE2MDYwNjUyWhcNMjgwNzE5MDYwNjUy
WjAVMRMwEQYDVQQDDApjbGllbnRfTE9YMIIBIjANBgkqhkiG9w0BAQEFAAOCAQ8A
MIIBCgKCAQEA5Mvb4gBaQq3uwAqyTdIO71BOqSFNuWOK1ip9GGUtP5BsMHnKvP7A
qn76B+2ZK09A8FOCqwOJWh8CWPaIhnSsWpeqBExHZ96fAeXr/97su+m9W1ziMCYA
6SHw7iPT0BacdeN+HrL2ZBN2p5FPxioFiKxd031ktv4h9GI8oT3GZ0gEvymuqLei
rXbEXCg3/kJ/8x15oSONf1HpTBpMf8NJmyH4YJP3xfyMAnaNRisgs+B5VQNyrQPx
8CrwI0cUjqjB9xQQHLizyE7isn6JNgbtKvEgcmEM6kaPOKDKMS+ZO+AsMvSIE5Gs
V8WzqwmZESapuRoG89FxRsD8Skk5jmbJrwIDAQABo4GdMIGaMAkGA1UdEwQCMAAw
HQYDVR0OBBYEFPmXURJ3aL+XWM1vwd6qrzEH+3B1MEwGA1UdIwRFMEOAFN/wOfAY
IR+bR+25kKo4O4ip4x5/oRWkEzARMQ8wDQYDVQQDDAZpYi12cG6CFB7CrrrUhH7U
kqXmrg+GpTQvcgi7MBMGA1UdJQQMMAoGCCsGAQUFBwMCMAsGA1UdDwQEAwIHgDAN
BgkqhkiG9w0BAQsFAAOCAQEAc0PLMJOZNQ52zoVIpMJbkTSFnGycroBOU2SVW4QY
RIlbyNqQsisFY4GOsfdIcUgwTjCTAevJWFdHS+pI8Bgm/O9dS3+00ehFNchSS7RY
SSkA/mc4VMHNNls8eLo4fd13ERAfpHAsfUehIsb1KgoXFyTK5gPKY27ZLqGboTNm
LjbYQLbSB37EwU4OW3LzjT7qoKwjEbJEe5SBVngSz3KGWVjfSqq4hQiWkLtOhmKu
cVkSGIUrqfDV1mWVm7gOYtd7SaLqTRoBf7lJGqm/2ErU8dNAoZ17bnE7kUFdSo22
24qJ6vmXcxe2LywTQLXRKP73WN4vBuuAeS3iiOYDh0lqVg==
-----END CERTIFICATE-----
