Certificate:
    Data:
        Version: 3 (0x2)
        Serial Number:
            65:bf:9b:2b:5e:cd:01:c3:93:ec:54:46:0e:c4:ac:8d
        Signature Algorithm: sha256WithRSAEncryption
        Issuer: CN=ib-vpn
        Validity
            Not Before: Apr 16 06:45:02 2026 GMT
            Not After : Jul 19 06:45:02 2028 GMT
        Subject: CN=client_eee
        Subject Public Key Info:
            Public Key Algorithm: rsaEncryption
                RSA Public-Key: (2048 bit)
                Modulus:
                    00:a8:aa:3d:fe:80:65:89:e7:cf:4d:13:f2:90:fd:
                    22:44:e5:17:74:1d:33:81:87:ff:41:18:4f:f7:60:
                    54:d6:9b:cb:27:21:c3:37:41:b9:48:0a:03:59:d7:
                    de:15:31:6b:78:04:b0:0a:91:00:2b:58:90:26:1d:
                    27:35:35:bd:26:64:15:15:18:1e:a1:4f:01:6e:2c:
                    58:85:65:2e:3a:e9:7b:18:0b:47:6f:87:9f:d2:2a:
                    dc:9d:52:65:d4:2f:38:69:50:4f:a9:94:dc:10:c6:
                    cc:07:84:26:ea:fc:09:c8:9e:0e:4b:b7:32:05:fa:
                    49:cf:5d:f1:36:b2:dc:14:b9:7a:05:94:e5:35:e2:
                    73:a9:4d:ba:57:7b:ab:d7:15:f6:4e:97:04:2c:1f:
                    0e:af:ad:14:4e:7d:bf:08:74:80:0a:e6:f7:66:61:
                    07:73:f2:69:24:c8:ed:a7:2f:55:01:b9:51:a7:55:
                    59:26:91:6d:fb:b8:9e:50:6c:34:f4:aa:6e:67:fe:
                    ac:2b:78:88:26:55:de:4a:55:ca:1f:03:84:ea:a4:
                    06:0a:3b:fa:2f:d4:e0:81:f8:0e:59:fb:c7:d0:17:
                    23:58:01:4b:db:fb:af:0b:15:9f:7a:17:cb:b4:58:
                    d1:21:67:8f:43:38:8f:d9:6f:6b:6d:51:16:af:d4:
                    ec:49
                Exponent: 65537 (0x10001)
        X509v3 extensions:
            X509v3 Basic Constraints: 
                CA:FALSE
            X509v3 Subject Key Identifier: 
                0F:FC:B8:C9:DD:6D:B4:24:DE:41:26:79:77:E2:E6:50:70:28:E9:88
            X509v3 Authority Key Identifier: 
                keyid:DF:F0:39:F0:18:21:1F:9B:47:ED:B9:90:AA:38:3B:88:A9:E3:1E:7F
                DirName:/CN=ib-vpn
                serial:1E:C2:AE:BA:D4:84:7E:D4:92:A5:E6:AE:0F:86:A5:34:2F:72:08:BB

            X509v3 Extended Key Usage: 
                TLS Web Client Authentication
            X509v3 Key Usage: 
                Digital Signature
    Signature Algorithm: sha256WithRSAEncryption
         4b:8a:e3:2b:9a:ac:f3:a7:fc:21:e4:78:e9:b8:c6:ae:84:37:
         07:f5:95:5a:b6:2c:99:ca:cd:e6:1e:84:61:6d:c3:00:b9:11:
         25:96:74:df:95:29:39:f2:cf:61:bd:fa:fa:eb:17:f5:41:af:
         fd:2b:c1:8a:ea:b9:da:8d:f8:72:b4:23:79:e7:54:e8:83:de:
         3f:7b:43:a9:19:d2:67:ab:3c:4b:3d:8d:b4:19:7b:18:af:ba:
         d5:4f:b5:36:75:9a:6e:2a:17:56:45:1f:1f:9d:a0:7e:a9:55:
         e2:3d:05:b9:67:07:9f:9b:63:74:26:72:55:bb:a2:38:91:79:
         1f:52:9f:4f:16:64:87:58:de:7b:6f:55:b5:94:de:0a:cd:84:
         83:39:e4:01:f8:c6:ed:40:e8:61:be:70:a1:e1:1f:6f:8f:5c:
         4f:c9:36:05:d8:8b:fd:0e:e2:04:a0:1c:7c:75:82:52:af:1d:
         eb:f4:81:69:f4:cf:f6:11:17:e9:eb:e6:74:6a:35:09:0d:28:
         46:3a:f9:02:c9:ee:5e:80:68:27:f2:c2:1b:3a:83:9a:f1:48:
         6e:77:86:02:10:d2:51:e1:b3:da:7d:a5:e4:67:b4:4e:b7:89:
         a4:29:bd:80:fa:ee:a3:16:0e:b9:08:17:ca:d5:46:cf:41:75:
         b5:01:5c:83
-----BEGIN CERTIFICATE-----
MIIDTjCCAjagAwIBAgIQZb+bK17NAcOT7FRGDsSsjTANBgkqhkiG9w0BAQsFADAR
MQ8wDQYDVQQDDAZpYi12cG4wHhcNMjYwNDE2MDY0NTAyWhcNMjgwNzE5MDY0NTAy
WjAVMRMwEQYDVQQDDApjbGllbnRfZWVlMIIBIjANBgkqhkiG9w0BAQEFAAOCAQ8A
MIIBCgKCAQEAqKo9/oBliefPTRPykP0iROUXdB0zgYf/QRhP92BU1pvLJyHDN0G5
SAoDWdfeFTFreASwCpEAK1iQJh0nNTW9JmQVFRgeoU8BbixYhWUuOul7GAtHb4ef
0ircnVJl1C84aVBPqZTcEMbMB4Qm6vwJyJ4OS7cyBfpJz13xNrLcFLl6BZTlNeJz
qU26V3ur1xX2TpcELB8Or60UTn2/CHSACub3ZmEHc/JpJMjtpy9VAblRp1VZJpFt
+7ieUGw09KpuZ/6sK3iIJlXeSlXKHwOE6qQGCjv6L9TggfgOWfvH0BcjWAFL2/uv
CxWfehfLtFjRIWePQziP2W9rbVEWr9TsSQIDAQABo4GdMIGaMAkGA1UdEwQCMAAw
HQYDVR0OBBYEFA/8uMndbbQk3kEmeXfi5lBwKOmIMEwGA1UdIwRFMEOAFN/wOfAY
IR+bR+25kKo4O4ip4x5/oRWkEzARMQ8wDQYDVQQDDAZpYi12cG6CFB7CrrrUhH7U
kqXmrg+GpTQvcgi7MBMGA1UdJQQMMAoGCCsGAQUFBwMCMAsGA1UdDwQEAwIHgDAN
BgkqhkiG9w0BAQsFAAOCAQEAS4rjK5qs86f8IeR46bjGroQ3B/WVWrYsmcrN5h6E
YW3DALkRJZZ035UpOfLPYb36+usX9UGv/SvBiuq52o34crQjeedU6IPeP3tDqRnS
Z6s8Sz2NtBl7GK+61U+1NnWabioXVkUfH52gfqlV4j0FuWcHn5tjdCZyVbuiOJF5
H1KfTxZkh1jee29VtZTeCs2EgznkAfjG7UDoYb5woeEfb49cT8k2BdiL/Q7iBKAc
fHWCUq8d6/SBafTP9hEX6evmdGo1CQ0oRjr5AsnuXoBoJ/LCGzqDmvFIbneGAhDS
UeGz2n2l5Ge0TreJpCm9gPruoxYOuQgXytVGz0F1tQFcgw==
-----END CERTIFICATE-----
