Certificate:
    Data:
        Version: 3 (0x2)
        Serial Number:
            74:ae:fc:9a:a5:e4:ed:66:73:c3:4e:86:c1:c1:b3:c7
        Signature Algorithm: sha256WithRSAEncryption
        Issuer: CN=ib-vpn
        Validity
            Not Before: May 20 05:04:06 2026 GMT
            Not After : Aug 22 05:04:06 2028 GMT
        Subject: CN=client_NRT
        Subject Public Key Info:
            Public Key Algorithm: rsaEncryption
                RSA Public-Key: (2048 bit)
                Modulus:
                    00:c4:7b:c8:25:8a:ba:80:06:0d:0c:a8:c8:98:f6:
                    a8:0c:c3:f0:59:92:0b:71:b9:7b:68:7f:9d:46:aa:
                    c0:66:84:6b:28:c7:0d:15:0b:3b:3a:b4:49:ba:49:
                    bb:97:bf:c5:de:2c:0b:bb:cb:2e:84:83:77:06:92:
                    04:4f:1e:ff:bb:96:60:b6:c2:44:00:24:c3:8c:f4:
                    66:26:62:03:16:8b:dd:bc:e4:dc:04:56:a3:0f:f7:
                    32:c8:ce:16:37:8c:9e:ba:ec:3f:44:75:dd:f4:4b:
                    f4:da:01:20:98:9f:ec:62:8f:43:27:60:44:40:0d:
                    90:fc:0a:28:82:99:77:b6:c6:77:67:25:71:ae:f9:
                    b7:37:ff:9b:f7:43:80:fe:04:9e:e9:32:39:b0:61:
                    df:86:89:57:3e:ef:9e:4a:f9:80:50:4c:7f:1c:78:
                    41:6f:d0:49:e9:77:2f:fe:e9:04:6a:ef:05:bc:41:
                    88:6f:40:c0:24:67:aa:73:a3:01:5e:2f:dc:d5:92:
                    cc:10:2d:db:04:a6:2a:af:23:df:b3:7b:8c:f4:fd:
                    30:25:26:d2:d3:7e:95:e2:2f:d1:4b:09:1c:de:3d:
                    c6:87:d1:dc:ec:02:5d:11:20:2b:72:47:80:df:99:
                    0d:71:da:48:79:76:5e:f7:b8:fe:27:fb:01:67:8c:
                    db:75
                Exponent: 65537 (0x10001)
        X509v3 extensions:
            X509v3 Basic Constraints: 
                CA:FALSE
            X509v3 Subject Key Identifier: 
                A7:C6:9B:A3:8E:3B:9A:10:FB:F6:39:48:29:18:9A:D9:3F:C2:74:2D
            X509v3 Authority Key Identifier: 
                keyid:DF:F0:39:F0:18:21:1F:9B:47:ED:B9:90:AA:38:3B:88:A9:E3:1E:7F
                DirName:/CN=ib-vpn
                serial:1E:C2:AE:BA:D4:84:7E:D4:92:A5:E6:AE:0F:86:A5:34:2F:72:08:BB

            X509v3 Extended Key Usage: 
                TLS Web Client Authentication
            X509v3 Key Usage: 
                Digital Signature
    Signature Algorithm: sha256WithRSAEncryption
         bc:3a:87:e9:9c:17:b9:00:26:7c:0c:a4:56:49:35:a1:4f:3f:
         b8:af:2b:a0:f7:b4:01:18:1c:86:ad:bc:b5:bb:88:4e:21:a6:
         d5:32:3f:7f:ec:cc:71:b2:fa:55:5c:ca:98:28:9f:f4:da:a8:
         b9:c5:09:64:32:fa:2f:af:c3:85:43:dd:fa:b3:4c:2b:aa:da:
         ed:85:9b:ba:96:b4:ac:32:25:93:71:9a:b5:cb:1d:69:dd:be:
         86:74:11:16:20:19:d6:96:9b:f8:a6:54:ce:a7:60:76:b0:79:
         3a:2b:cb:3e:7e:b6:48:96:0f:67:db:2b:5a:64:a6:f5:a7:95:
         48:a0:1a:0b:c4:aa:93:86:19:a9:1d:83:97:18:a2:dc:2f:49:
         a7:99:a6:92:77:59:b0:6e:62:b2:3d:62:72:49:27:ed:ab:f5:
         c4:c1:a2:e7:46:87:50:ae:b4:3c:ba:0d:2b:19:b9:32:56:0e:
         cb:21:b7:a6:e9:fd:98:ba:26:64:b5:2e:2f:30:5d:c1:2d:0a:
         d4:42:20:12:88:14:8b:09:b2:30:ce:b4:a3:0f:b4:0d:6f:9b:
         f3:f2:32:58:2a:39:16:16:2d:0a:96:0f:77:ce:20:56:42:1a:
         83:d2:e6:38:b1:83:e9:11:7e:7b:c2:7e:a1:9b:9b:76:f3:1a:
         b2:07:ec:bd
-----BEGIN CERTIFICATE-----
MIIDTjCCAjagAwIBAgIQdK78mqXk7WZzw06GwcGzxzANBgkqhkiG9w0BAQsFADAR
MQ8wDQYDVQQDDAZpYi12cG4wHhcNMjYwNTIwMDUwNDA2WhcNMjgwODIyMDUwNDA2
WjAVMRMwEQYDVQQDDApjbGllbnRfTlJUMIIBIjANBgkqhkiG9w0BAQEFAAOCAQ8A
MIIBCgKCAQEAxHvIJYq6gAYNDKjImPaoDMPwWZILcbl7aH+dRqrAZoRrKMcNFQs7
OrRJukm7l7/F3iwLu8suhIN3BpIETx7/u5ZgtsJEACTDjPRmJmIDFovdvOTcBFaj
D/cyyM4WN4yeuuw/RHXd9Ev02gEgmJ/sYo9DJ2BEQA2Q/Aoogpl3tsZ3ZyVxrvm3
N/+b90OA/gSe6TI5sGHfholXPu+eSvmAUEx/HHhBb9BJ6Xcv/ukEau8FvEGIb0DA
JGeqc6MBXi/c1ZLMEC3bBKYqryPfs3uM9P0wJSbS036V4i/RSwkc3j3Gh9Hc7AJd
ESArckeA35kNcdpIeXZe97j+J/sBZ4zbdQIDAQABo4GdMIGaMAkGA1UdEwQCMAAw
HQYDVR0OBBYEFKfGm6OOO5oQ+/Y5SCkYmtk/wnQtMEwGA1UdIwRFMEOAFN/wOfAY
IR+bR+25kKo4O4ip4x5/oRWkEzARMQ8wDQYDVQQDDAZpYi12cG6CFB7CrrrUhH7U
kqXmrg+GpTQvcgi7MBMGA1UdJQQMMAoGCCsGAQUFBwMCMAsGA1UdDwQEAwIHgDAN
BgkqhkiG9w0BAQsFAAOCAQEAvDqH6ZwXuQAmfAykVkk1oU8/uK8roPe0ARgchq28
tbuITiGm1TI/f+zMcbL6VVzKmCif9NqoucUJZDL6L6/DhUPd+rNMK6ra7YWbupa0
rDIlk3Gatcsdad2+hnQRFiAZ1pab+KZUzqdgdrB5OivLPn62SJYPZ9srWmSm9aeV
SKAaC8Sqk4YZqR2Dlxii3C9Jp5mmkndZsG5isj1ickkn7av1xMGi50aHUK60PLoN
Kxm5MlYOyyG3pun9mLomZLUuLzBdwS0K1EIgEogUiwmyMM60ow+0DW+b8/IyWCo5
FhYtCpYPd84gVkIag9LmOLGD6RF+e8J+oZubdvMasgfsvQ==
-----END CERTIFICATE-----
