Certificate:
    Data:
        Version: 3 (0x2)
        Serial Number:
            83:dd:c9:c0:32:b7:cb:1f:9f:b5:74:26:0d:ca:f8:d6
        Signature Algorithm: sha256WithRSAEncryption
        Issuer: CN=ib-vpn
        Validity
            Not Before: Apr 16 07:37:04 2026 GMT
            Not After : Jul 19 07:37:04 2028 GMT
        Subject: CN=client_LOX
        Subject Public Key Info:
            Public Key Algorithm: rsaEncryption
                RSA Public-Key: (2048 bit)
                Modulus:
                    00:c1:07:61:b5:20:4f:08:25:9d:0e:ca:8f:ea:2c:
                    a3:32:dd:d5:2e:61:9a:f6:56:ed:46:bc:b8:c1:b0:
                    9c:1f:13:06:87:82:58:e2:36:43:a9:a8:d1:8e:bb:
                    3c:88:60:c2:b8:84:31:f0:0b:5f:bf:ff:07:cc:04:
                    2a:04:d9:8e:1c:ee:6d:a4:fa:86:ec:2f:09:7f:92:
                    81:93:da:a7:5c:7b:df:d0:7f:b0:b6:d2:47:12:b6:
                    70:07:09:95:79:27:21:23:b8:2b:fd:ed:a1:42:9c:
                    c9:38:00:53:56:09:95:7b:92:85:9f:17:9b:7f:3e:
                    fb:16:d1:3f:aa:b7:46:09:fd:70:3b:3c:8b:c0:3c:
                    d1:15:05:e7:1a:86:43:20:d5:a5:eb:e6:0d:ed:83:
                    8e:c3:a9:33:35:ac:76:54:b0:e8:49:c1:98:89:5f:
                    c1:2c:84:5b:f7:3e:dd:de:e3:ca:f1:42:d3:66:81:
                    af:76:97:fc:f1:13:d2:7e:b7:b6:e3:ee:d3:d4:eb:
                    91:1e:92:ce:f6:3b:c0:46:a1:07:0d:a3:98:7c:7d:
                    78:d3:a9:e0:57:05:bc:d7:23:3d:2a:a5:eb:e8:6a:
                    82:90:98:40:b8:70:28:c3:64:91:6f:a6:b5:f9:ec:
                    28:ab:0c:40:28:b1:dc:50:3a:41:c3:f5:d2:fa:73:
                    ca:bd
                Exponent: 65537 (0x10001)
        X509v3 extensions:
            X509v3 Basic Constraints: 
                CA:FALSE
            X509v3 Subject Key Identifier: 
                02:A1:5B:43:30:6C:1B:91:89:79:2C:85:9E:B7:0F:13:2D:52:7F:90
            X509v3 Authority Key Identifier: 
                keyid:DF:F0:39:F0:18:21:1F:9B:47:ED:B9:90:AA:38:3B:88:A9:E3:1E:7F
                DirName:/CN=ib-vpn
                serial:1E:C2:AE:BA:D4:84:7E:D4:92:A5:E6:AE:0F:86:A5:34:2F:72:08:BB

            X509v3 Extended Key Usage: 
                TLS Web Client Authentication
            X509v3 Key Usage: 
                Digital Signature
    Signature Algorithm: sha256WithRSAEncryption
         75:1c:f3:ae:3f:89:fb:d7:ee:b8:cf:2d:62:02:f3:57:b8:aa:
         1e:ca:6b:4d:9b:6c:02:bf:a6:e3:9c:8c:58:cb:f3:e0:e8:ef:
         2a:d9:87:5c:8b:71:7e:ea:5a:f1:48:40:4c:97:09:df:d6:82:
         1d:e3:b7:3a:70:f1:90:c3:d2:52:3e:68:ef:c7:9a:5f:21:72:
         6b:f9:5c:c8:58:30:ac:7e:3e:94:d1:ee:19:84:45:6c:c8:b9:
         c1:f7:9b:c2:15:f4:ad:82:f0:23:d0:7a:a5:b7:35:ba:69:60:
         5f:49:57:a7:8f:95:4d:b2:c0:4a:18:b0:f1:a1:fb:a0:2c:75:
         50:e9:e8:f2:ea:8a:6c:2d:3c:06:c3:55:34:1c:95:7b:45:4d:
         8f:3a:46:40:2d:7f:78:5e:8c:27:6c:a1:63:44:ed:be:8d:ed:
         93:4b:9a:cf:d8:44:d3:4a:f2:de:5b:b3:6e:ed:d6:d8:54:75:
         4f:94:cb:1f:a7:be:1f:77:6c:e3:65:65:d9:6b:35:bf:5f:06:
         94:13:35:7b:40:21:20:67:a6:b7:7f:05:7e:e2:a8:f9:f9:bb:
         14:16:9e:ce:b1:40:6f:74:dc:c6:12:b8:ac:75:83:09:d9:35:
         1b:96:3a:86:5c:2d:c1:51:fc:9e:82:c8:30:ed:73:10:e3:27:
         15:fe:76:99
-----BEGIN CERTIFICATE-----
MIIDTzCCAjegAwIBAgIRAIPdycAyt8sfn7V0Jg3K+NYwDQYJKoZIhvcNAQELBQAw
ETEPMA0GA1UEAwwGaWItdnBuMB4XDTI2MDQxNjA3MzcwNFoXDTI4MDcxOTA3Mzcw
NFowFTETMBEGA1UEAwwKY2xpZW50X0xPWDCCASIwDQYJKoZIhvcNAQEBBQADggEP
ADCCAQoCggEBAMEHYbUgTwglnQ7Kj+osozLd1S5hmvZW7Ua8uMGwnB8TBoeCWOI2
Q6mo0Y67PIhgwriEMfALX7//B8wEKgTZjhzubaT6huwvCX+SgZPap1x739B/sLbS
RxK2cAcJlXknISO4K/3toUKcyTgAU1YJlXuShZ8Xm38++xbRP6q3Rgn9cDs8i8A8
0RUF5xqGQyDVpevmDe2DjsOpMzWsdlSw6EnBmIlfwSyEW/c+3d7jyvFC02aBr3aX
/PET0n63tuPu09TrkR6SzvY7wEahBw2jmHx9eNOp4FcFvNcjPSql6+hqgpCYQLhw
KMNkkW+mtfnsKKsMQCix3FA6QcP10vpzyr0CAwEAAaOBnTCBmjAJBgNVHRMEAjAA
MB0GA1UdDgQWBBQCoVtDMGwbkYl5LIWetw8TLVJ/kDBMBgNVHSMERTBDgBTf8Dnw
GCEfm0ftuZCqODuIqeMef6EVpBMwETEPMA0GA1UEAwwGaWItdnBughQewq661IR+
1JKl5q4PhqU0L3IIuzATBgNVHSUEDDAKBggrBgEFBQcDAjALBgNVHQ8EBAMCB4Aw
DQYJKoZIhvcNAQELBQADggEBAHUc864/ifvX7rjPLWIC81e4qh7Ka02bbAK/puOc
jFjL8+Do7yrZh1yLcX7qWvFIQEyXCd/Wgh3jtzpw8ZDD0lI+aO/Hml8hcmv5XMhY
MKx+PpTR7hmERWzIucH3m8IV9K2C8CPQeqW3NbppYF9JV6ePlU2ywEoYsPGh+6As
dVDp6PLqimwtPAbDVTQclXtFTY86RkAtf3hejCdsoWNE7b6N7ZNLms/YRNNK8t5b
s27t1thUdU+Uyx+nvh93bONlZdlrNb9fBpQTNXtAISBnprd/BX7iqPn5uxQWns6x
QG903MYSuKx1gwnZNRuWOoZcLcFR/J6CyDDtcxDjJxX+dpk=
-----END CERTIFICATE-----
