Certificate:
    Data:
        Version: 3 (0x2)
        Serial Number:
            a3:80:00:e6:75:71:08:94:48:41:0e:c6:9d:ac:31:50
        Signature Algorithm: sha256WithRSAEncryption
        Issuer: CN=ib-vpn
        Validity
            Not Before: Apr 16 08:38:05 2026 GMT
            Not After : Jul 19 08:38:05 2028 GMT
        Subject: CN=client_LOX
        Subject Public Key Info:
            Public Key Algorithm: rsaEncryption
                RSA Public-Key: (2048 bit)
                Modulus:
                    00:f7:fc:07:b2:c1:52:83:68:a2:72:ba:b9:4c:b3:
                    90:54:d9:7d:07:a0:54:24:c9:b3:7d:95:8b:0e:0b:
                    96:a4:2e:88:6b:db:3f:ef:56:77:01:44:ea:9d:b7:
                    eb:ad:90:79:6f:2d:09:ef:b7:f5:ab:e4:21:20:59:
                    35:ba:29:f2:0b:a2:45:6e:3e:e2:41:7b:63:56:20:
                    81:63:15:06:db:ec:d3:a3:2e:a8:d6:12:84:1f:b1:
                    e4:ad:73:b5:c7:b4:ce:99:6d:c2:76:f5:0c:c2:a1:
                    06:18:7d:23:c4:c9:07:79:3b:eb:c5:6a:61:25:7f:
                    9c:46:d3:ee:28:a7:42:c3:b6:46:a2:cd:21:a7:76:
                    8a:de:0e:d3:b1:5c:34:8d:0b:6e:24:f3:8f:5f:f6:
                    3c:d1:ec:bf:09:eb:e8:95:ba:51:72:ef:a2:94:4f:
                    1d:6f:49:dc:7d:27:2d:b9:bf:4c:77:0c:c4:19:95:
                    0d:83:49:9b:40:a8:d8:05:97:ad:8d:f8:86:f9:d8:
                    d9:ad:ef:9a:7e:8d:6a:aa:2a:5a:9f:b1:f3:85:ca:
                    d7:b7:41:9d:24:23:cc:5c:7e:68:1e:1c:a9:30:55:
                    d7:68:df:68:b4:17:a6:07:97:bd:42:f5:45:57:ee:
                    ee:b2:99:71:bd:c4:30:60:13:e1:77:38:60:b1:1e:
                    e0:b3
                Exponent: 65537 (0x10001)
        X509v3 extensions:
            X509v3 Basic Constraints: 
                CA:FALSE
            X509v3 Subject Key Identifier: 
                82:80:46:7F:23:26:1A:E9:2B:DE:80:62:F1:88:C0:14:7B:61:F1:25
            X509v3 Authority Key Identifier: 
                keyid:DF:F0:39:F0:18:21:1F:9B:47:ED:B9:90:AA:38:3B:88:A9:E3:1E:7F
                DirName:/CN=ib-vpn
                serial:1E:C2:AE:BA:D4:84:7E:D4:92:A5:E6:AE:0F:86:A5:34:2F:72:08:BB

            X509v3 Extended Key Usage: 
                TLS Web Client Authentication
            X509v3 Key Usage: 
                Digital Signature
    Signature Algorithm: sha256WithRSAEncryption
         16:46:82:fe:0c:41:0f:4b:93:60:13:da:90:e8:59:6e:0d:c0:
         c6:ec:5d:dc:ae:13:86:d5:02:a4:5e:73:94:df:df:4e:46:03:
         a4:d8:be:78:59:8b:af:0b:b3:4e:07:13:ea:80:72:76:ae:9c:
         9c:27:cf:45:35:dc:fa:c4:8e:ba:46:94:da:fe:b3:80:f3:17:
         b0:16:ea:ed:ef:d7:aa:e7:a8:8e:8e:55:d3:37:1d:9e:ba:47:
         27:98:0a:e6:ff:cf:e0:5b:4f:5a:f1:51:e5:c5:dd:00:b6:51:
         d3:9e:ec:06:3c:e4:aa:0a:42:96:e3:85:41:51:52:7b:58:58:
         0a:c5:cc:8b:8d:75:e9:89:50:fd:1b:cd:e8:8c:02:02:37:52:
         7c:6a:d8:c0:22:a9:c5:ad:3a:f8:de:db:ee:79:ef:f3:b5:f5:
         8b:e7:fd:0a:d8:10:24:69:e8:65:e5:31:ed:ed:75:23:51:03:
         e0:d5:b4:70:f6:aa:36:58:9a:d3:f4:22:26:5c:b3:75:9a:05:
         d0:04:42:6d:17:97:d2:08:30:fe:cf:89:4b:58:8e:28:c1:31:
         ef:e5:00:90:93:d8:5b:99:e9:35:e6:ff:72:08:54:a0:d2:b7:
         bc:18:ae:2e:12:9a:9b:d3:16:b0:53:a8:5c:e6:00:7b:0a:42:
         18:6f:e5:b0
-----BEGIN CERTIFICATE-----
MIIDTzCCAjegAwIBAgIRAKOAAOZ1cQiUSEEOxp2sMVAwDQYJKoZIhvcNAQELBQAw
ETEPMA0GA1UEAwwGaWItdnBuMB4XDTI2MDQxNjA4MzgwNVoXDTI4MDcxOTA4Mzgw
NVowFTETMBEGA1UEAwwKY2xpZW50X0xPWDCCASIwDQYJKoZIhvcNAQEBBQADggEP
ADCCAQoCggEBAPf8B7LBUoNoonK6uUyzkFTZfQegVCTJs32Viw4LlqQuiGvbP+9W
dwFE6p23662QeW8tCe+39avkISBZNbop8guiRW4+4kF7Y1YggWMVBtvs06MuqNYS
hB+x5K1ztce0zpltwnb1DMKhBhh9I8TJB3k768VqYSV/nEbT7iinQsO2RqLNIad2
it4O07FcNI0LbiTzj1/2PNHsvwnr6JW6UXLvopRPHW9J3H0nLbm/THcMxBmVDYNJ
m0Co2AWXrY34hvnY2a3vmn6NaqoqWp+x84XK17dBnSQjzFx+aB4cqTBV12jfaLQX
pgeXvUL1RVfu7rKZcb3EMGAT4Xc4YLEe4LMCAwEAAaOBnTCBmjAJBgNVHRMEAjAA
MB0GA1UdDgQWBBSCgEZ/IyYa6SvegGLxiMAUe2HxJTBMBgNVHSMERTBDgBTf8Dnw
GCEfm0ftuZCqODuIqeMef6EVpBMwETEPMA0GA1UEAwwGaWItdnBughQewq661IR+
1JKl5q4PhqU0L3IIuzATBgNVHSUEDDAKBggrBgEFBQcDAjALBgNVHQ8EBAMCB4Aw
DQYJKoZIhvcNAQELBQADggEBABZGgv4MQQ9Lk2AT2pDoWW4NwMbsXdyuE4bVAqRe
c5Tf305GA6TYvnhZi68Ls04HE+qAcnaunJwnz0U13PrEjrpGlNr+s4DzF7AW6u3v
16rnqI6OVdM3HZ66RyeYCub/z+BbT1rxUeXF3QC2UdOe7AY85KoKQpbjhUFRUntY
WArFzIuNdemJUP0bzeiMAgI3Unxq2MAiqcWtOvje2+557/O19Yvn/QrYECRp6GXl
Me3tdSNRA+DVtHD2qjZYmtP0IiZcs3WaBdAEQm0Xl9IIMP7PiUtYjijBMe/lAJCT
2FuZ6TXm/3IIVKDSt7wYri4SmpvTFrBTqFzmAHsKQhhv5bA=
-----END CERTIFICATE-----
