Certificate:
    Data:
        Version: 3 (0x2)
        Serial Number:
            b6:50:66:9d:ea:42:e3:43:bb:3d:d6:ad:97:a0:57:b2
        Signature Algorithm: sha256WithRSAEncryption
        Issuer: CN=ib-vpn
        Validity
            Not Before: May 20 05:27:22 2026 GMT
            Not After : Aug 22 05:27:22 2028 GMT
        Subject: CN=client_eee
        Subject Public Key Info:
            Public Key Algorithm: rsaEncryption
                RSA Public-Key: (2048 bit)
                Modulus:
                    00:be:f9:2f:83:79:a4:77:bf:cd:7c:22:43:5b:16:
                    75:ab:54:30:90:43:cb:e1:db:14:58:33:e2:0e:4c:
                    f0:a9:b4:b2:07:c9:0a:7a:60:2f:6a:5d:41:a2:de:
                    c9:ad:07:a3:37:6e:51:e2:88:ff:cf:63:81:d2:64:
                    b5:e3:8a:68:71:d1:da:36:a5:16:c6:4d:a6:72:ad:
                    ec:02:9e:55:2e:e0:07:b5:24:4a:94:d7:4d:c9:2f:
                    4d:ce:81:a4:32:23:04:2c:24:7c:5c:a0:fd:0e:af:
                    eb:40:54:1b:92:6e:6d:63:92:19:c2:e7:53:26:4f:
                    ae:53:77:f7:53:04:93:52:dc:9e:70:0b:98:9e:67:
                    df:0e:a7:61:c2:ba:70:80:80:5e:a2:4d:63:5c:14:
                    c6:6e:6a:a0:e8:02:38:61:ea:5c:df:64:9a:cc:11:
                    cc:10:60:57:f5:ac:6c:4b:bc:5d:0a:7d:55:3d:cf:
                    e6:06:ca:cc:a9:31:6d:15:89:44:31:96:f2:a1:7a:
                    ab:87:6f:42:c9:b1:63:40:93:77:62:b8:cc:ea:cc:
                    50:39:71:9b:2a:6e:3e:40:56:9d:d9:d6:64:61:5a:
                    b3:7e:61:a3:b6:de:30:69:da:19:63:3b:85:31:1a:
                    9d:2b:ca:b1:09:c0:00:48:65:d1:41:a2:e0:aa:1b:
                    3c:f3
                Exponent: 65537 (0x10001)
        X509v3 extensions:
            X509v3 Basic Constraints: 
                CA:FALSE
            X509v3 Subject Key Identifier: 
                8E:CB:3D:F9:96:5B:99:5D:0A:54:B8:EA:2F:3F:3B:F9:6E:F1:9D:1E
            X509v3 Authority Key Identifier: 
                keyid:DF:F0:39:F0:18:21:1F:9B:47:ED:B9:90:AA:38:3B:88:A9:E3:1E:7F
                DirName:/CN=ib-vpn
                serial:1E:C2:AE:BA:D4:84:7E:D4:92:A5:E6:AE:0F:86:A5:34:2F:72:08:BB

            X509v3 Extended Key Usage: 
                TLS Web Client Authentication
            X509v3 Key Usage: 
                Digital Signature
    Signature Algorithm: sha256WithRSAEncryption
         86:1a:8d:ca:84:47:ba:8b:06:6b:15:de:8a:67:df:0c:c2:47:
         f4:be:b8:8a:3d:2d:23:d1:f1:9b:0c:f6:b9:2e:53:57:26:92:
         05:44:7d:41:66:f1:b7:ca:24:da:8d:0f:d3:90:39:fe:87:69:
         df:3a:39:86:ac:6b:26:ad:38:49:cb:26:41:17:29:e8:01:20:
         9a:2b:50:b4:ef:0c:a3:a5:cd:59:8d:fc:24:cb:74:5a:3b:73:
         a3:21:a9:3e:aa:23:86:a9:dc:ca:14:29:43:ca:d4:a8:66:da:
         0d:18:52:54:19:7a:11:7c:27:1b:bd:b9:b9:3b:e1:46:08:50:
         be:e4:18:b9:7a:6a:d1:ae:57:f2:87:f3:42:13:f4:e8:cb:89:
         95:a2:fa:14:aa:65:ff:55:71:12:bc:dc:39:95:5d:79:46:5c:
         8e:62:21:2c:0c:51:4e:80:89:bb:87:b5:ef:f3:09:78:b4:bb:
         14:be:a5:db:27:29:cd:3e:5b:2f:88:4f:4d:66:cf:19:fb:9f:
         56:43:7e:a4:2d:b7:48:e6:a6:8a:96:f2:2d:84:89:a2:a6:ba:
         bb:6a:aa:e0:da:8e:9d:f2:ce:be:df:ae:a2:2c:ef:10:0d:71:
         50:f6:43:2b:01:2a:28:42:82:a5:a2:a5:41:82:2c:14:e9:a2:
         cd:1a:2d:d8
-----BEGIN CERTIFICATE-----
MIIDTzCCAjegAwIBAgIRALZQZp3qQuNDuz3WrZegV7IwDQYJKoZIhvcNAQELBQAw
ETEPMA0GA1UEAwwGaWItdnBuMB4XDTI2MDUyMDA1MjcyMloXDTI4MDgyMjA1Mjcy
MlowFTETMBEGA1UEAwwKY2xpZW50X2VlZTCCASIwDQYJKoZIhvcNAQEBBQADggEP
ADCCAQoCggEBAL75L4N5pHe/zXwiQ1sWdatUMJBDy+HbFFgz4g5M8Km0sgfJCnpg
L2pdQaLeya0HozduUeKI/89jgdJkteOKaHHR2jalFsZNpnKt7AKeVS7gB7UkSpTX
TckvTc6BpDIjBCwkfFyg/Q6v60BUG5JubWOSGcLnUyZPrlN391MEk1LcnnALmJ5n
3w6nYcK6cICAXqJNY1wUxm5qoOgCOGHqXN9kmswRzBBgV/WsbEu8XQp9VT3P5gbK
zKkxbRWJRDGW8qF6q4dvQsmxY0CTd2K4zOrMUDlxmypuPkBWndnWZGFas35ho7be
MGnaGWM7hTEanSvKsQnAAEhl0UGi4KobPPMCAwEAAaOBnTCBmjAJBgNVHRMEAjAA
MB0GA1UdDgQWBBSOyz35lluZXQpUuOovPzv5bvGdHjBMBgNVHSMERTBDgBTf8Dnw
GCEfm0ftuZCqODuIqeMef6EVpBMwETEPMA0GA1UEAwwGaWItdnBughQewq661IR+
1JKl5q4PhqU0L3IIuzATBgNVHSUEDDAKBggrBgEFBQcDAjALBgNVHQ8EBAMCB4Aw
DQYJKoZIhvcNAQELBQADggEBAIYajcqER7qLBmsV3opn3wzCR/S+uIo9LSPR8ZsM
9rkuU1cmkgVEfUFm8bfKJNqND9OQOf6Had86OYasayatOEnLJkEXKegBIJorULTv
DKOlzVmN/CTLdFo7c6MhqT6qI4ap3MoUKUPK1Khm2g0YUlQZehF8Jxu9ubk74UYI
UL7kGLl6atGuV/KH80IT9OjLiZWi+hSqZf9VcRK83DmVXXlGXI5iISwMUU6AibuH
te/zCXi0uxS+pdsnKc0+Wy+IT01mzxn7n1ZDfqQtt0jmpoqW8i2EiaKmurtqquDa
jp3yzr7frqIs7xANcVD2QysBKihCgqWipUGCLBTpos0aLdg=
-----END CERTIFICATE-----
