Certificate:
    Data:
        Version: 3 (0x2)
        Serial Number:
            c6:a2:76:67:42:66:ac:66:1c:04:86:01:98:85:3f:58
        Signature Algorithm: sha256WithRSAEncryption
        Issuer: CN=ib-vpn
        Validity
            Not Before: Apr 14 10:36:34 2026 GMT
            Not After : Jul 17 10:36:34 2028 GMT
        Subject: CN=10.4.50.15
        Subject Public Key Info:
            Public Key Algorithm: rsaEncryption
                RSA Public-Key: (2048 bit)
                Modulus:
                    00:c5:d3:93:3e:1e:63:29:6d:86:b2:70:b6:fd:e0:
                    0c:ac:d4:98:08:4f:ba:95:78:fd:d1:7a:1e:d3:02:
                    9d:e1:6d:7e:9b:74:b2:7b:3e:86:c1:e5:c6:1d:b8:
                    aa:39:f7:96:e7:0b:85:dc:11:37:18:bc:c3:03:14:
                    22:8f:7e:2b:ce:1b:9f:0e:50:c2:6e:cf:f0:71:3a:
                    63:ef:bb:46:31:d6:44:97:ab:dd:ae:cc:1d:f4:60:
                    f2:04:6c:c7:ea:da:0d:47:99:84:cc:5e:46:74:6f:
                    cd:19:5b:85:86:2b:91:60:60:bd:e3:7c:87:a4:e1:
                    2b:22:48:44:22:86:97:e8:bb:27:db:e4:c2:20:9b:
                    ac:05:e3:01:24:07:40:70:80:63:ed:d6:9c:8a:2d:
                    ef:af:58:a5:bb:9f:2f:6f:33:76:67:0c:83:26:c9:
                    ef:25:52:6c:f5:8d:42:e8:11:c7:1a:28:61:b8:25:
                    55:6a:60:34:76:11:49:e2:17:0c:1e:09:a4:62:29:
                    cb:52:d1:34:20:09:ba:81:f2:bb:ad:22:f4:16:ef:
                    6c:8d:66:b6:00:e4:3a:3e:13:55:24:21:2a:fd:46:
                    ca:3c:1f:f3:4d:68:a7:f6:6f:78:5e:ad:66:a4:52:
                    65:a0:7b:f7:8f:ba:f2:d0:f8:22:af:e8:11:07:ba:
                    59:47
                Exponent: 65537 (0x10001)
        X509v3 extensions:
            X509v3 Basic Constraints: 
                CA:FALSE
            X509v3 Subject Key Identifier: 
                1E:34:AB:DC:EA:25:F8:B0:81:CC:7D:3C:A1:60:6F:0D:2E:EB:40:9D
            X509v3 Authority Key Identifier: 
                keyid:DF:F0:39:F0:18:21:1F:9B:47:ED:B9:90:AA:38:3B:88:A9:E3:1E:7F
                DirName:/CN=ib-vpn
                serial:1E:C2:AE:BA:D4:84:7E:D4:92:A5:E6:AE:0F:86:A5:34:2F:72:08:BB

            X509v3 Extended Key Usage: 
                TLS Web Server Authentication
            X509v3 Key Usage: 
                Digital Signature, Key Encipherment
            X509v3 Subject Alternative Name: 
                IP Address:10.4.50.15
    Signature Algorithm: sha256WithRSAEncryption
         80:e3:31:41:52:e2:dc:2b:fc:02:c7:d9:7a:cf:bd:a9:7b:c3:
         44:0d:69:25:67:bd:d1:59:00:36:35:d7:4c:af:15:66:d8:0d:
         23:ed:12:28:3d:36:79:59:f6:82:54:db:27:41:1b:d0:71:ab:
         eb:bc:8c:8f:4e:e7:01:39:d3:2e:8b:bc:60:07:59:55:3b:a9:
         9f:fc:e1:8c:cf:e6:c7:06:f3:2d:01:fa:a7:56:05:e8:30:ae:
         43:e8:bf:3f:59:4e:bf:09:b8:fc:27:33:6f:f2:a2:bf:f8:e7:
         46:84:05:99:1b:0e:9a:e4:6d:56:66:6f:02:16:85:b5:59:34:
         4a:1e:b3:c9:d1:ea:92:1e:6e:3e:fb:f4:78:2b:02:04:9a:1f:
         3c:f8:73:1d:98:26:0b:a0:00:83:9b:60:f6:92:97:1a:c5:3f:
         20:33:91:f6:e3:02:69:1d:46:9a:90:23:ae:77:7e:79:e0:54:
         bb:8e:fb:3b:1a:f7:6c:b9:95:3b:0b:01:13:ef:5b:fb:8e:2f:
         45:d6:11:23:e2:b4:31:5b:bb:22:21:ad:c6:9e:b8:d3:df:48:
         97:35:a2:fb:a6:da:b5:be:50:7b:f4:e4:80:c4:33:8c:7b:28:
         0e:f2:05:a2:13:1b:c9:e4:77:a1:3a:a2:0c:75:65:93:65:9a:
         b1:64:16:dc
-----BEGIN CERTIFICATE-----
MIIDYDCCAkigAwIBAgIRAMaidmdCZqxmHASGAZiFP1gwDQYJKoZIhvcNAQELBQAw
ETEPMA0GA1UEAwwGaWItdnBuMB4XDTI2MDQxNDEwMzYzNFoXDTI4MDcxNzEwMzYz
NFowFTETMBEGA1UEAwwKMTAuNC41MC4xNTCCASIwDQYJKoZIhvcNAQEBBQADggEP
ADCCAQoCggEBAMXTkz4eYylthrJwtv3gDKzUmAhPupV4/dF6HtMCneFtfpt0sns+
hsHlxh24qjn3lucLhdwRNxi8wwMUIo9+K84bnw5Qwm7P8HE6Y++7RjHWRJer3a7M
HfRg8gRsx+raDUeZhMxeRnRvzRlbhYYrkWBgveN8h6ThKyJIRCKGl+i7J9vkwiCb
rAXjASQHQHCAY+3WnIot769YpbufL28zdmcMgybJ7yVSbPWNQugRxxooYbglVWpg
NHYRSeIXDB4JpGIpy1LRNCAJuoHyu60i9BbvbI1mtgDkOj4TVSQhKv1Gyjwf801o
p/ZveF6tZqRSZaB794+68tD4Iq/oEQe6WUcCAwEAAaOBrjCBqzAJBgNVHRMEAjAA
MB0GA1UdDgQWBBQeNKvc6iX4sIHMfTyhYG8NLutAnTBMBgNVHSMERTBDgBTf8Dnw
GCEfm0ftuZCqODuIqeMef6EVpBMwETEPMA0GA1UEAwwGaWItdnBughQewq661IR+
1JKl5q4PhqU0L3IIuzATBgNVHSUEDDAKBggrBgEFBQcDATALBgNVHQ8EBAMCBaAw
DwYDVR0RBAgwBocECgQyDzANBgkqhkiG9w0BAQsFAAOCAQEAgOMxQVLi3Cv8AsfZ
es+9qXvDRA1pJWe90VkANjXXTK8VZtgNI+0SKD02eVn2glTbJ0Eb0HGr67yMj07n
ATnTLou8YAdZVTupn/zhjM/mxwbzLQH6p1YF6DCuQ+i/P1lOvwm4/Cczb/Kiv/jn
RoQFmRsOmuRtVmZvAhaFtVk0Sh6zydHqkh5uPvv0eCsCBJofPPhzHZgmC6AAg5tg
9pKXGsU/IDOR9uMCaR1GmpAjrnd+eeBUu477Oxr3bLmVOwsBE+9b+44vRdYRI+K0
MVu7IiGtxp64099IlzWi+6batb5Qe/TkgMQzjHsoDvIFohMbyeR3oTqiDHVlk2Wa
sWQW3A==
-----END CERTIFICATE-----
