Certificate:
    Data:
        Version: 3 (0x2)
        Serial Number:
            e8:98:84:a7:54:7a:55:7c:3f:54:77:38:bd:36:12:2b
        Signature Algorithm: sha256WithRSAEncryption
        Issuer: CN=ib-vpn
        Validity
            Not Before: Apr 16 07:14:42 2026 GMT
            Not After : Jul 19 07:14:42 2028 GMT
        Subject: CN=client_qqq
        Subject Public Key Info:
            Public Key Algorithm: rsaEncryption
                RSA Public-Key: (2048 bit)
                Modulus:
                    00:b7:20:67:f5:0c:5b:f8:9f:a6:72:62:49:d6:d4:
                    9b:a1:9d:af:98:19:59:a9:37:b9:10:5a:e8:67:1f:
                    9f:75:d7:f9:90:fa:b4:33:b1:76:a9:9e:36:5b:52:
                    62:8b:c4:6d:52:12:88:89:d9:1e:dd:7f:a7:40:be:
                    ab:ee:c1:38:c6:67:9e:b8:fa:9c:c1:b9:90:03:35:
                    ce:fd:76:dc:63:49:98:39:6a:fe:00:79:b0:e0:1c:
                    05:3f:a7:d0:26:e8:04:ae:d4:a5:47:05:cf:62:8d:
                    4b:df:8f:5d:5f:20:9c:e7:b7:d7:5c:c2:5d:0f:fd:
                    9d:bc:17:8d:eb:73:b4:be:19:7d:ad:dc:a4:63:b0:
                    51:82:3e:68:8b:a8:d1:d2:e2:f5:40:58:7e:0f:c9:
                    c5:26:95:d3:cf:95:55:15:ed:87:a2:07:61:f4:1b:
                    1a:d3:2d:c3:83:a0:4b:99:9a:71:1e:c8:b0:ed:da:
                    25:45:84:53:89:5d:71:ae:ae:e8:9c:95:ab:39:1e:
                    21:7d:45:94:c1:0d:72:d9:89:3f:19:22:c6:8e:bc:
                    2f:67:4e:83:c8:98:9c:b9:ad:3d:1d:48:b4:a0:8c:
                    93:15:c3:db:39:ab:7d:d8:78:9a:99:c2:88:19:bd:
                    eb:c1:83:37:20:4b:97:07:61:bd:d0:37:48:c5:e6:
                    8c:87
                Exponent: 65537 (0x10001)
        X509v3 extensions:
            X509v3 Basic Constraints: 
                CA:FALSE
            X509v3 Subject Key Identifier: 
                3A:80:57:9A:05:33:38:70:B8:FF:C9:32:C0:E6:5D:4E:EB:13:CC:A8
            X509v3 Authority Key Identifier: 
                keyid:DF:F0:39:F0:18:21:1F:9B:47:ED:B9:90:AA:38:3B:88:A9:E3:1E:7F
                DirName:/CN=ib-vpn
                serial:1E:C2:AE:BA:D4:84:7E:D4:92:A5:E6:AE:0F:86:A5:34:2F:72:08:BB

            X509v3 Extended Key Usage: 
                TLS Web Client Authentication
            X509v3 Key Usage: 
                Digital Signature
    Signature Algorithm: sha256WithRSAEncryption
         1e:6d:5d:d7:58:96:a0:41:4f:c7:b4:53:f4:16:7a:7d:57:81:
         7c:84:40:59:12:33:a0:99:0a:10:27:a9:fe:a3:af:cb:e4:73:
         24:1f:c6:7e:97:d7:8c:81:94:a4:99:03:21:59:48:3b:a1:2f:
         56:ab:e8:9a:c0:64:c3:dd:37:5f:b2:b0:ae:c0:d5:54:8d:df:
         62:0d:61:6b:36:4e:12:10:3a:92:8d:a5:b4:32:d8:f6:ec:83:
         ef:2b:5b:8c:cc:41:e8:f8:bc:bc:36:83:11:41:5e:b6:1e:e9:
         47:8b:59:a5:2b:ba:26:00:be:70:94:d6:1f:00:e8:bb:60:15:
         9c:68:e4:dd:fd:9e:eb:89:4d:a2:f7:83:ca:6e:c1:a9:b9:cc:
         aa:52:da:6f:c9:e2:e5:31:78:66:ab:64:59:62:be:31:72:c8:
         30:14:c9:de:57:2c:61:75:78:fe:fd:5f:6a:38:ec:7e:e8:90:
         cf:d6:34:ba:8e:5c:ad:03:06:e2:50:76:76:19:0e:87:84:c6:
         f5:30:93:a4:fb:98:35:77:c8:57:aa:9f:2a:7b:b5:0d:c5:db:
         58:2c:47:e3:00:fa:32:c0:c7:72:ef:30:cb:ea:ab:24:dd:c0:
         7a:11:bc:0b:eb:8c:f0:4b:0f:37:14:c3:7e:e4:e5:24:ce:1a:
         0f:07:94:e2
-----BEGIN CERTIFICATE-----
MIIDTzCCAjegAwIBAgIRAOiYhKdUelV8P1R3OL02EiswDQYJKoZIhvcNAQELBQAw
ETEPMA0GA1UEAwwGaWItdnBuMB4XDTI2MDQxNjA3MTQ0MloXDTI4MDcxOTA3MTQ0
MlowFTETMBEGA1UEAwwKY2xpZW50X3FxcTCCASIwDQYJKoZIhvcNAQEBBQADggEP
ADCCAQoCggEBALcgZ/UMW/ifpnJiSdbUm6Gdr5gZWak3uRBa6Gcfn3XX+ZD6tDOx
dqmeNltSYovEbVISiInZHt1/p0C+q+7BOMZnnrj6nMG5kAM1zv123GNJmDlq/gB5
sOAcBT+n0CboBK7UpUcFz2KNS9+PXV8gnOe311zCXQ/9nbwXjetztL4Zfa3cpGOw
UYI+aIuo0dLi9UBYfg/JxSaV08+VVRXth6IHYfQbGtMtw4OgS5macR7IsO3aJUWE
U4ldca6u6JyVqzkeIX1FlMENctmJPxkixo68L2dOg8iYnLmtPR1ItKCMkxXD2zmr
fdh4mpnCiBm968GDNyBLlwdhvdA3SMXmjIcCAwEAAaOBnTCBmjAJBgNVHRMEAjAA
MB0GA1UdDgQWBBQ6gFeaBTM4cLj/yTLA5l1O6xPMqDBMBgNVHSMERTBDgBTf8Dnw
GCEfm0ftuZCqODuIqeMef6EVpBMwETEPMA0GA1UEAwwGaWItdnBughQewq661IR+
1JKl5q4PhqU0L3IIuzATBgNVHSUEDDAKBggrBgEFBQcDAjALBgNVHQ8EBAMCB4Aw
DQYJKoZIhvcNAQELBQADggEBAB5tXddYlqBBT8e0U/QWen1XgXyEQFkSM6CZChAn
qf6jr8vkcyQfxn6X14yBlKSZAyFZSDuhL1ar6JrAZMPdN1+ysK7A1VSN32INYWs2
ThIQOpKNpbQy2Pbsg+8rW4zMQej4vLw2gxFBXrYe6UeLWaUruiYAvnCU1h8A6Ltg
FZxo5N39nuuJTaL3g8puwam5zKpS2m/J4uUxeGarZFlivjFyyDAUyd5XLGF1eP79
X2o47H7okM/WNLqOXK0DBuJQdnYZDoeExvUwk6T7mDV3yFeqnyp7tQ3F21gsR+MA
+jLAx3LvMMvqqyTdwHoRvAvrjPBLDzcUw37k5STOGg8HlOI=
-----END CERTIFICATE-----
