Certificate:
    Data:
        Version: 3 (0x2)
        Serial Number:
            04:f3:b4:6d:bb:d0:03:07:53:34:2f:82:9e:35:3c:fc
        Signature Algorithm: sha256WithRSAEncryption
        Issuer: CN=ib-vpn
        Validity
            Not Before: Apr 14 10:51:05 2026 GMT
            Not After : Jul 17 10:51:05 2028 GMT
        Subject: CN=client_test
        Subject Public Key Info:
            Public Key Algorithm: rsaEncryption
                RSA Public-Key: (2048 bit)
                Modulus:
                    00:ab:bf:c0:84:77:2b:30:1d:1f:65:26:6b:0f:05:
                    9c:8e:72:c9:32:32:5d:6c:76:c1:17:20:e1:8f:48:
                    f6:ce:eb:55:a0:c0:01:83:5f:97:36:bf:61:94:1d:
                    14:36:21:37:49:b0:b5:18:6c:f3:18:55:d4:30:78:
                    42:7f:b3:ff:cb:6c:bd:d4:c9:80:f9:d4:67:e9:de:
                    53:3c:7c:38:64:e6:25:fe:59:40:24:c1:d8:d9:3a:
                    64:2a:01:b4:b8:aa:11:4e:77:dc:8a:07:d7:28:57:
                    d7:2f:79:f3:6c:1d:39:c4:9a:13:f5:a2:c0:7c:33:
                    2d:70:1b:8a:a9:7e:8e:c4:00:92:2c:26:76:ef:1e:
                    6d:06:9d:76:37:39:d4:49:f9:c8:32:93:13:47:33:
                    dd:7f:33:ca:f1:8e:ac:a5:16:b4:aa:94:cd:b0:61:
                    77:4a:1a:d8:48:06:10:bb:17:ca:a8:03:64:bd:0b:
                    65:19:37:8c:f1:84:53:7c:aa:06:1e:bb:c3:2e:96:
                    53:3d:8c:25:61:0f:d9:64:e5:cf:5e:96:48:63:f0:
                    07:47:62:2a:08:60:6b:04:56:0a:b0:17:4c:0d:a6:
                    2f:7a:b9:41:28:88:9b:a9:23:23:48:9f:b4:c2:59:
                    eb:34:6f:23:54:64:af:9f:78:0b:4f:18:af:4e:80:
                    3c:9b
                Exponent: 65537 (0x10001)
        X509v3 extensions:
            X509v3 Basic Constraints: 
                CA:FALSE
            X509v3 Subject Key Identifier: 
                EF:27:F7:51:E4:D4:97:9A:29:7A:B3:13:C1:7A:1A:6D:47:F3:7C:CD
            X509v3 Authority Key Identifier: 
                keyid:DF:F0:39:F0:18:21:1F:9B:47:ED:B9:90:AA:38:3B:88:A9:E3:1E:7F
                DirName:/CN=ib-vpn
                serial:1E:C2:AE:BA:D4:84:7E:D4:92:A5:E6:AE:0F:86:A5:34:2F:72:08:BB

            X509v3 Extended Key Usage: 
                TLS Web Client Authentication
            X509v3 Key Usage: 
                Digital Signature
    Signature Algorithm: sha256WithRSAEncryption
         b9:ba:0e:b7:81:67:ab:ed:f1:74:63:6f:c3:c2:a6:68:cb:41:
         a8:cd:0e:c5:31:58:aa:d2:06:01:39:30:b9:c2:0c:3b:3a:5e:
         1a:ac:90:73:09:df:df:a0:0b:0a:84:04:9d:f5:72:ea:1d:19:
         ea:37:9c:94:d3:11:6b:2f:88:26:b8:bc:15:04:92:0d:09:4f:
         50:7d:ae:f6:85:88:5b:fe:68:58:7d:0a:fa:e6:d6:1b:50:ce:
         fa:c2:39:07:22:d4:15:22:d3:08:fb:e7:f0:aa:6e:48:b1:a4:
         51:3c:72:1a:e9:da:9b:1f:54:69:fc:53:a2:b5:d1:be:43:c7:
         67:c7:b7:d6:f2:07:98:28:38:1d:67:c9:b6:97:ee:dd:b6:e0:
         9d:87:29:bd:f8:bb:b3:a8:90:57:69:24:9c:4e:78:87:c8:57:
         ce:75:f6:80:75:39:cc:63:76:c6:8d:52:39:3c:87:77:ba:68:
         29:95:23:52:80:40:af:93:26:67:d0:68:fa:2d:2b:e0:ef:38:
         8d:39:d5:ba:62:61:3c:23:ac:e0:51:ff:b9:58:86:6d:05:f9:
         8f:3e:13:7d:f1:0c:bb:37:ae:12:e3:5f:c1:11:cb:e0:4e:1d:
         a8:fa:6c:ab:52:6b:94:3e:5f:fc:84:a8:5a:03:58:b6:c0:c4:
         a4:c4:8a:23
-----BEGIN CERTIFICATE-----
MIIDTzCCAjegAwIBAgIQBPO0bbvQAwdTNC+CnjU8/DANBgkqhkiG9w0BAQsFADAR
MQ8wDQYDVQQDDAZpYi12cG4wHhcNMjYwNDE0MTA1MTA1WhcNMjgwNzE3MTA1MTA1
WjAWMRQwEgYDVQQDDAtjbGllbnRfdGVzdDCCASIwDQYJKoZIhvcNAQEBBQADggEP
ADCCAQoCggEBAKu/wIR3KzAdH2Umaw8FnI5yyTIyXWx2wRcg4Y9I9s7rVaDAAYNf
lza/YZQdFDYhN0mwtRhs8xhV1DB4Qn+z/8tsvdTJgPnUZ+neUzx8OGTmJf5ZQCTB
2Nk6ZCoBtLiqEU533IoH1yhX1y9582wdOcSaE/WiwHwzLXAbiql+jsQAkiwmdu8e
bQaddjc51En5yDKTE0cz3X8zyvGOrKUWtKqUzbBhd0oa2EgGELsXyqgDZL0LZRk3
jPGEU3yqBh67wy6WUz2MJWEP2WTlz16WSGPwB0diKghgawRWCrAXTA2mL3q5QSiI
m6kjI0iftMJZ6zRvI1Rkr594C08Yr06APJsCAwEAAaOBnTCBmjAJBgNVHRMEAjAA
MB0GA1UdDgQWBBTvJ/dR5NSXmil6sxPBehptR/N8zTBMBgNVHSMERTBDgBTf8Dnw
GCEfm0ftuZCqODuIqeMef6EVpBMwETEPMA0GA1UEAwwGaWItdnBughQewq661IR+
1JKl5q4PhqU0L3IIuzATBgNVHSUEDDAKBggrBgEFBQcDAjALBgNVHQ8EBAMCB4Aw
DQYJKoZIhvcNAQELBQADggEBALm6DreBZ6vt8XRjb8PCpmjLQajNDsUxWKrSBgE5
MLnCDDs6XhqskHMJ39+gCwqEBJ31cuodGeo3nJTTEWsviCa4vBUEkg0JT1B9rvaF
iFv+aFh9Cvrm1htQzvrCOQci1BUi0wj75/CqbkixpFE8chrp2psfVGn8U6K10b5D
x2fHt9byB5goOB1nybaX7t224J2HKb34u7OokFdpJJxOeIfIV8519oB1OcxjdsaN
Ujk8h3e6aCmVI1KAQK+TJmfQaPotK+DvOI051bpiYTwjrOBR/7lYhm0F+Y8+E33x
DLs3rhLjX8ERy+BOHaj6bKtSa5Q+X/yEqFoDWLbAxKTEiiM=
-----END CERTIFICATE-----
